{'': 767200, u'_ZNK17double_conversion23StringToDoubleConverter12StringToIeeeIPKtEEdT_ibPi': 644352, u'_ZN7mozilla12baseprofiler31profiler_capture_backtrace_intoERNS_20ProfileChunkedBufferENS_19StackCaptureOptionsE': 158208, u'_ZNK3lul13CallFrameInfo13UndefinedRule4CopyEv': 315808, u'plt._ZNSt7__cxx1112basic_stringIcSt11char_traitsIcESaIcEEC2ERKS4_': 50720, u'_ZN5Mutex6UnlockEv': 116432, u'plt.getpid': 50864, u'_ZNK3lul13CallFrameInfo13ValOffsetRule4CopyEv': 316928, u'__FRAME_END__': 756604, u'_ZN7mozilla12baseprofiler12UniqueStacks10BeginStackERKNS1_8FrameKeyE': 135792, u'_ZN15MmapAccessScopeC1EPvjPKc': 375616, u'dlerror': 49792, u'_ZNK5blink7DecimalneERKS0_': 396656, u'_ZN17double_conversion6Bignum14SubtractBignumERKS0_': 621936, u'_ZN12RedBlackTreeI17arena_chunk_map_t17ArenaRunTreeTraitE6RemoveENS2_8TreeNodeE': 102368, u'LZ4_compressHC_limitedOutput_continue': 500176, u'_ZN12_GLOBAL__N_115ElfArchitectureIN3lul10ElfClass32EEEPKcPKNT_4EhdrE': 345136, u'_ZN3lul13CallFrameInfo8Reporter8BadCIEIdEyy': 225840, u'_ZZN7mozilla28base_profiler_markers_detailL34AddMarkerWithOptionalStackToBufferINS_12baseprofiler7markers9NoPayloadEJEEENS_23ProfileBufferBlockIndexERNS_20ProfileChunkedBufferERKNS_18ProfilerStringViewIcEERKNS_14MarkerCategoryEONS_13MarkerOptionsEDpRKT0_EN17NoPayloadUserData17MarkerTypeDisplayEv': 331088, u'_ZN3lul3LULD1Ev': 356800, u'jemalloc_thread_local_arena': 72912, u'LZ4_compressHC2_withStateHC': 499776, u'plt.pthread_mutex_destroy': 50464, u'_ZSt24__throw_out_of_range_fmtPKcz': 50976, u'got._ZNSt7__cxx1112basic_stringIcSt11char_traitsIcESaIcEE9_M_mutateEmmPKcm': 767000, u'moz_create_arena_with_params': 73040, u'plt.__fxstat': 50272, u'_ZN7mozilla12ReadAheadLibEPKc': 56032, u'_ZNK7mozilla12baseprofiler15PageInformation19SizeOfIncludingThisEPFmPKvE': 131952, u'got.time': 766416, u'_ZN7arena_tD2Ev': 70160, u'got.pow': 766968, u'_ZN3lul13CallFrameInfo13ValOffsetRule9SetOffsetEx': 316992, u'_ZN7mozilla12baseprofiler23profiler_pause_samplingEv': 200128, u'_ZN9AllocatorI15MozJemallocBaseE6vallocEm': 84368, u'LZ4_loadDictHC': 497328, u'LZ4F_errorStrings': 765072, u'plt.strncpy': 49728, u'got.setenv': 766848, u'_ZNK7mozilla18ProfileBufferChunk19SizeOfIncludingThisEPFmPKvE': 241776, u'_ZN7mozilla12baseprofiler17UniqueJSONStringsC2ENS_10JSONWriter15CollectionStyleE': 142480, u'_ZN5blink7Decimal11EncodedDataC2ENS0_4SignENS1_11FormatClassE': 392256, u'moz_xstrndup': 120080, u'_ZN7mozilla17IsProfilerPresentEv': 373328, u'_GLOBAL__sub_I_nsBrowserApp.cpp': 51920, u'_ZN17double_conversion6Bignum9AddBignumERKS0_': 620480, u'plt._ZNSt6locale7classicEv': 50688, u'dlopen': 50880, u'MozWalkTheStack': 386224, u'_ZL18sPrintfCrashReason': 775104, u'_ZL12replace_freePv': 114336, u'_ZSt22__move_median_to_firstIN9__gnu_cxx17__normal_iteratorIP13SharedLibrarySt6vectorIS2_SaIS2_EEEENS0_5__ops15_Iter_comp_iterIPFbRKS2_SB_EEEEvT_SF_SF_SF_T0_': 275328, u'LZ4_createStreamHC': 497152, u'_ZNSt7__cxx1112basic_stringIcSt11char_traitsIcESaIcEE9_M_appendEPKcm': 49504, u'_ZN7mozilla12baseprofiler8ActivePS16MoveExitProfilesB5cxx11ERKNS0_10PSAutoLockE': 195824, u'_ZN7mozilla21AutoProfilerLabelData6sEnterE': 774792, u'_ZGVZN17double_conversion12_GLOBAL__N_17ToLowerEcE5cType': 776232, u'_ZN7mozilla21AutoProfilerLabelData5sExitE': 774800, u'_ZN12RedBlackTreeI13extent_node_t17ExtentTreeSzTraitE11MoveRedLeftENS2_8TreeNodeE': 76608, u'LZ4_compress_continue': 485328, u'_ZN7mozilla20ProfileChunkedBuffer10PutObjectsIJNS_22ProfileBufferEntryKindENS_13MarkerOptionsENS_18ProfilerStringViewIcEENS_14MarkerCategoryEhEEENS_23ProfileBufferBlockIndexEDpRKT_': 330656, u'_ZN3lul16FromUniqueStringEPKNS_12UniqueStringE': 213152, u'LZ4_compress_HC': 496624, u'_ZN7mozilla6VectorINS_12baseprofiler18CounterKeyedSampleELm0ENS_17MallocAllocPolicyEE13growStorageByEm': 269568, u'XXH32_finalize': 566912, u'_ZTVN3lul13CallFrameInfo13ValOffsetRuleE': 764816, u'_ZN7mozilla12baseprofiler13SamplerThreadD2Ev': 175680, u'_ZN7mozilla24ProfileBufferEntryReader12DeserializerINS_11MarkerStackEE8ReadIntoERS0_RS2_': 324768, u'_ZN12RedBlackTreeI13arena_chunk_t20ArenaDirtyChunkTraitE6InsertENS2_8TreeNodeE': 101632, u'LZ4_slideInputBufferHC': 500880, u'plt.sem_wait': 50400, u'_ZN3lul6ModuleD2Ev': 213056, u'_ZnamRKSt9nothrow_t': 119488, u'_ZN7mozilla10JSONWriter12scTrueStringE': 764008, u'plt.islower': 50656, u'_ZN7mozilla12baseprofiler19ProfilingStackFrameaSERKS1_': 160512, u'_ZN3lul16DwarfCFIToModule14ExpressionRuleEyiRKNSt7__cxx1112basic_stringIcSt11char_traitsIcESaIcEEE': 229632, u'dladdr': 50224, u'moz_arena_free': 73392, u'got.madvise': 766632, u'strerror': 49552, u'plt.pthread_cond_init': 50528, u'_ZN7mozilla12baseprofiler27SpliceableChunkedJSONWriter13TakeAndSpliceEONS0_20ChunkedJSONWriteFuncE': 245088, u'_Z11mozToDoubleN7mozilla4SpanIKcLm18446744073709551615EEEPb': 389920, u'_ZN7mozilla6detail9HashTableINS_12HashMapEntryIjjEENS_7HashMapIjjNS_13DefaultHasherIjvEENS_17MallocAllocPolicyEE13MapHashPolicyES7_E15changeTableSizeEjNSA_15FailureBehaviorE': 328672, u'_ZN3lul6FileID25ConvertIdentifierToStringEPKhPci': 238208, u'plt._ZNSt7__cxx1112basic_stringIcSt11char_traitsIcESaIcEE10_M_replaceEmmPKcm': 51008, u'_ZL10chunks_mtx': 767848, u'dlsym': 51312, u'LZ4F_isError': 485552, u'LZ4F_decompress_usingDict': 495296, u'_ZN7mozilla6detail17gChaosModeCounterE': 776128, u'_ZN7mozilla12baseprofiler31profiler_remove_sampled_counterEPNS0_17BaseProfilerCountE': 201776, u'_ZGVZN7mozilla28base_profiler_markers_detail23MarkerTypeSerializationINS_12baseprofiler7markers10TextMarkerEE9SerializeIJNS_18ProfilerStringViewIcEEEEENS_23ProfileBufferBlockIndexERNS_20ProfileChunkedBufferERKS8_RKNS_14MarkerCategoryEONS_13MarkerOptionsEDpRKT_E3tag': 774744, u'_ZN7mozilla6detail9MutexImplD1Ev': 376704, u'_ZN7mozilla39ProfileBufferChunkManagerWithLocalLimit23DestroyChunksAtOrBeforeENS_9TimeStampE': 309872, u'_ZN7mozilla11Compression26LZ4FrameCompressionContext16BeginCompressingENS_4SpanIcLm18446744073709551615EEE': 602224, u'_ZN7arena_t11PallocLargeEmmm': 65136, u'_ZNK3lul13CallFrameInfo14ExpressionRule6HandleEPNS0_7HandlerEyi': 316256, u'_ZNSt8ios_baseD2Ev': 49536, u'_ZN7mozillaL22sCanonicalNowTimeStampE.0.0': 775016, u'LZ4_resetStreamStateHC': 500320, u'_ZN7mozilla10JSONWriter22scTopObjectBeginStringE': 764056, u'LZ4_decompress_safe_partial': 452048, u'__cxa_pure_virtual': 765056, u'_ZTTSt14basic_ofstreamIcSt11char_traitsIcEE': 765848, u'LZ4F_getVersion': 485648, u'got.__gmon_start__': 765920, u'LZ4_compress_limitedOutput_withState': 485232, u'got.gettimeofday': 766904, u'valloc': 72560, u'_ZNK3lul13CallFrameInfo13SameValueRule6getTagEv': 315968, u'_ZN5blink7Decimal11EncodedDataC2ENS0_4SignEim': 392288, u'plt.sem_init': 51200, u'_ZN7mozilla12baseprofiler6detail12RacyFeatures9SetPausedEv': 161392, u'got.memcpy': 766368, u'strerror_r': 49392, u'got.pthread_mutexattr_init': 766744, u'XXH32_copyState': 566160, u'_ZN7mozilla10JSONWriter13scCommaStringE': 763632, u'plt.strlen': 49632, u'_ZN7mozilla12baseprofiler17AutoProfilerLabel15sProfilingStackE': 24, u'_ZN7mozilla12baseprofiler8ActivePS15sNextGenerationE': 774640, u'_Z14SprintfLiteralILm96EEiRAT__cPKcz': 353664, u'LZ4_setStreamDecode': 466880, u'LZ4_freeStreamHC': 497200, u'_ZL14base_past_addr': 767800, u'strtoul': 49520, u'_ZTVN7mozilla12baseprofiler27SpliceableChunkedJSONWriterE': 763888, u'_ZN7mozilla10JSONWriter13EscapedStringC2ERKNS_4SpanIKcLm18446744073709551615EEE': 239584, u'_ZZN7mozilla20ProfileChunkedBuffer16ReserveAndPutRawIZNS0_13ReserveAndPutIZNS0_10PutObjectsIJNS_22ProfileBufferEntryKindENS_13MarkerOptionsENS_18ProfilerStringViewIcEENS_14MarkerCategoryEhS7_EEENS_23ProfileBufferBlockIndexEDpRKT_EUlvE_ZNS3_IJS4_S5_S7_S8_hS7_EEES9_SD_EUlRNS_5MaybeINS_24ProfileBufferEntryWriterEEEE_EEDTclclsr3stdE7forwardIT0_Efp0_EclL_ZSt7declvalISI_EDTcl9__declvalIT_ELi0EEEvEEEEOSM_OSK_EUlvE_ZNS2_ISE_SJ_EESO_SP_SQ_EUlSI_E_EEDaSP_SQ_RNS_12baseprofiler6detail25BaseProfilerMaybeAutoLockEmENKUlvE_clEv': 340032, u'_ZNO7mozilla12MarkerSchema6StreamERNS_10JSONWriterERKNS_4SpanIKcLm18446744073709551615EEE': 153712, u'_ZN5blink7Decimal10fromDoubleEd': 398464, u'_ZN7mozilla12baseprofiler8categoryL2JSE': 684848, u'got.mmap': 766984, u'plt._ZNKSt5ctypeIcE13_M_widen_initEv': 50432, u'_ZN7mozilla12baseprofiler18ProfiledThreadDataC2EPNS0_10ThreadInfoE': 144896, u'XXH32_reset': 566192, u'_ZN12_GLOBAL__N_17LoadELFERKNSt7__cxx1112basic_stringIcSt11char_traitsIcESaIcEEEPNS_11MmapWrapperEPPv': 236000, u'_ZN7arena_tdlEPv': 69312, u'_ZL6OutputPKcz': 54848, u'_ZNSt5dequeIN3lul13CallFrameInfo7RuleMapESaIS2_EE9push_backERKS2_': 344000, u'LZ4_compressHC': 498944, u'_ZN3lul6ModuleC2ERKNSt7__cxx1112basic_stringIcSt11char_traitsIcESaIcEEES8_S8_S8_': 212560, u'got._ZNSt13basic_filebufIcSt11char_traitsIcEE4openEPKcSt13_Ios_Openmode': 766400, u'_ZN7mozilla12baseprofiler10PSAutoLock8gPSMutexE': 774568, u'_ZZN7mozilla12baseprofiler13ProfileBuffer19DuplicateLastSampleEiRKNS_9TimeStampERNS_5MaybeImEEENK3$_5clEPNS_20ProfileChunkedBuffer6ReaderE': 273024, u'_ZN7mozilla9UniquePtrINS_9BootstrapENS1_15BootstrapDeleteEED2Ev': 52992, u'_ZNK3lul13CallFrameInfo17ValExpressionRuleeqERKNS0_4RuleE': 315392, u'_ZN7mozilla10JSONWriter20scTopObjectEndStringE': 764088, u'_ZN19ReplaceMallocBridge25DisablePHCOnCurrentThreadEv': 108816, u'_ZN7mozilla6detail15gTwoCharEscapesE': 691712, u'_ZN7arena_t9InitChunkEP13arena_chunk_tb': 60048, u'LZ4_resetStreamState': 485440, u'XXH3_hashLong_64b_withSecret': 572672, u'_ZN3lul16DwarfCFIToModule3EndEv': 230256, u'got.syscall': 766008, u'_ZN5blink7DecimalC2ENS0_4SignEim': 392576, u'_ZZ8phc_initE6bridge': 768504, u'plt._Unwind_GetIP': 50560, u'_ZNK5blink7DecimalgtERKS0_': 397104, u'_ZN7mozilla17AutoProfilerLabelC2EPKcS2_': 373552, u'plt.tolower': 50848, u'plt.pthread_cond_destroy': 51376, u'_ZN7mozilla12baseprofiler7LogTestEi': 160944, u'got._ZNKSt7__cxx1112basic_stringIcSt11char_traitsIcESaIcEE4findEPKcmm': 766960, u'LZ4_compressHC2_limitedOutput_withStateHC': 499920, u'got.fputs': 766568, u'_ZN7mozilla29BaseTimeDurationPlatformUtils17ResolutionInTicksEv': 387936, u'free': 72288, u'_ZNK3lul10ByteReader14ReadEightBytesEPKc': 214128, u'_ZN7mozilla12baseprofilerL20MozGlueBaseLabelExitEPv': 305472, u'got.strcasecmp': 766536, u'_ZNSt8_Rb_treeIiSt4pairIKiPN3lul13CallFrameInfo4RuleEESt10_Select1stIS6_ESt4lessIiESaIS6_EE8_M_eraseEPSt13_Rb_tree_nodeIS6_E': 317904, u'plt._ZSt16__ostream_insertIcSt11char_traitsIcEERSt13basic_ostreamIT_T0_ES6_PKS3_l': 50416, u'_ZL15PrintStackFramejPvS_S_': 386432, u'_ZN7mozilla9TimeStamp12NowFuzzyTimeEv': 387712, u'_ZN3lul8SegArray3addEmmb': 359152, u'_ZNK3lul13CallFrameInfo17ValExpressionRule6HandleEPNS0_7HandlerEyi': 315360, u'_ZN15MmapAccessScope19SetThreadLocalScopeEv': 375984, u'_ZNK7mozilla12baseprofiler13ProfileBuffer21GetProfilerBufferInfoEv': 134752, u'_ZN3lul13CallFrameInfo5State13ParseOperandsEPKcPNS1_8OperandsE': 218768, u'_ZN7arena_t8SplitRunEP11arena_run_tmbb': 59488, u'got.dlsym': 767032, u'_ZN19DummyArenaAllocatorI9AllocatorI17ReplaceMallocBaseEE17moz_arena_reallocEmPvm': 95504, u'_ZL4sTop': 767216, u'_ZN7mozilla20ProfileChunkedBuffer16ReserveAndPutRawIZNS0_13ReserveAndPutIZNS0_10PutObjectsIJNS_22ProfileBufferEntryKindENS_13MarkerOptionsENS_18ProfilerStringViewIcEENS_14MarkerCategoryEhEEENS_23ProfileBufferBlockIndexEDpRKT_EUlvE_ZNS3_IJS4_S5_S7_S8_hEEES9_SD_EUlRNS_5MaybeINS_24ProfileBufferEntryWriterEEEE_EEDTclclsr3stdE7forwardIT0_Efp0_EclL_ZSt7declvalISI_EDTcl9__declvalIT_ELi0EEEvEEEEOSM_OSK_EUlvE_ZNS2_ISE_SJ_EESO_SP_SQ_EUlSI_E_EEDaSP_SQ_RNS_12baseprofiler6detail25BaseProfilerMaybeAutoLockEm': 331248, u'_ZN17double_conversionL21GenerateCountedDigitsEiPiPNS_6BignumES2_NS_6VectorIcEES0_': 617328, u'_ZN5blink14DecimalPrivate19SpecialValueHandlerC1ERKNS_7DecimalES4_': 391776, u'_ZN17double_conversion6Bignum13SubtractTimesERKS0_i': 627568, u'_ZN7mozilla31ProfileBufferChunkManagerSingleD0Ev': 240848, u'_ZN3lul16DwarfCFIToModule13RegisterNames4I386Ev': 227232, u'strncpy': 49728, u'_ZN7mozilla11Compression28LZ4FrameDecompressionContextC2Eb': 602832, u'_ZN7mozilla20ProfileChunkedBuffer16ReserveAndPutRawIZNS0_13ReserveAndPutIZNS0_7PutFromEPKvjEUlvE_ZNS0_7PutFromES4_jEUlRNS_5MaybeINS_24ProfileBufferEntryWriterEEEE_EEDTclclsr3stdE7forwardIT0_Efp0_EclL_ZSt7declvalIS9_EDTcl9__declvalIT_ELi0EEEvEEEEOSD_OSB_EUlvE_ZNS2_IS5_SA_EESF_SG_SH_EUlS9_E_EEDaSG_SH_RNS_12baseprofiler6detail25BaseProfilerMaybeAutoLockEm': 241856, u'_ZN7mozilla6detail9MutexImpl6unlockEv': 377056, u'got.usleep': 766776, u'_ZN14TypedBaseAllocI7arena_tE10sFirstFreeE': 767240, u'_ZNSt6locale7classicEv': 50688, u'_ZTVN3lul10SummariserE': 763200, u'memcmp': 49664, u'_ZN7arena_tC1EP14arena_params_sb': 69376, u'_ZN3lul13CallFrameInfo5State12InterpretCIEERKNS0_3CIEE': 216608, u'_ZN7mozilla12baseprofiler7Sampler7DisableERKNS0_10PSAutoLockE': 175328, u'LZ4_createStreamDecode': 466816, u'_ZN7mozilla12baseprofiler13ProfileBuffer24DiscardSamplesBeforeTimeEd': 142464, u'_ZN3lul13CallFrameInfo7Handler13SignalHandlerEv': 238928, u'got._ZTVSt15basic_streambufIcSt11char_traitsIcEE': 765840, u'_ZZNK7mozilla12baseprofiler13ProfileBuffer20StreamCountersToJSONERNS0_20SpliceableJSONWriterERKNS_9TimeStampEdENK3$_2clEPNS_20ProfileChunkedBuffer6ReaderE': 260688, u'_ZN7mozilla12baseprofiler18ProfileBufferEntryC1ENS_22ProfileBufferEntryKindEPKc': 135568, u'_ZN12RedBlackTreeI17arena_chunk_map_t19ArenaAvailTreeTraitE6InsertENS2_8TreeNodeE': 98560, u'_ZN7mozilla12baseprofiler8ActivePS9sInstanceE': 774632, u'got.fclose': 766464, u'got.dladdr': 766488, u'_ZN7mozilla6detail11IsValidUtf8EPKvm': 608432, u'_ZN3lul13CallFrameInfo5State6DoRuleEjPNS0_4RuleE': 220864, u'_ZN7mozilla12baseprofilerL11ThreadEntryEPv': 175664, u'LZ4F_compressFrame': 489200, u'gSIGBUSHandlerInstalled': 774812, u'pthread_atfork': 659264, u'_ZN7mozilla20ProfileChunkedBuffer15SetChunkManagerERNS_25ProfileBufferChunkManagerE': 271536, u'_ZN7mozilla6detail9HashTableINS_12HashMapEntryIPvNS_7HashMapImNS_6VectorINS_12baseprofiler18CounterKeyedSampleELm0ENS_17MallocAllocPolicyEEENS_13DefaultHasherImvEES8_EEEENS4_IS3_SC_NSA_IS3_vEES8_E13MapHashPolicyES8_E3addIJRS3_SC_EEEbRNSH_6AddPtrEDpOT_': 265936, u'_ZN7mozilla11Compression26LZ4FrameCompressionContextD2Ev': 602208, u'_ZN7mozilla24ProfileBufferEntryWriter12WriteObjectsIJNS_14MarkerThreadIdENS_12MarkerTimingENS_11MarkerStackENS_19MarkerInnerWindowIdEEEEvDpRKT_': 333328, u'_ZN3lul13CallFrameInfo13ValOffsetRule15SetBaseRegisterEj': 316976, u'plt.__memcpy_chk': 51104, u'_ZL13InitXPCOMGlueN7mozilla18LibLoadingStrategyE': 54368, u'_Z6EqualsRK14malloc_table_tS1_': 70992, u'plt._ZSt9use_facetISt5ctypeIcEERKT_RKSt6locale': 49616, u'_GLOBAL_OFFSET_TABLE_': 765952, u'_GLOBAL__sub_I_AutoProfilerLabel.cpp': 52384, u'XXH32_createState': 566128, u'MozWalkTheStackWithWriter': 386800, u'_ZNSt5dequeIN3lul13CallFrameInfo7RuleMapESaIS2_EE19_M_destroy_data_auxESt15_Deque_iteratorIS2_RS2_PS2_ES8_': 317200, u'got._ZTVSt9basic_iosIcSt11char_traitsIcEE': 765816, u'_ZN5blink7DecimalC2Ei': 392528, u'_ZNSo9_M_insertIlEERSoT_': 50112, u'XXH3_hashLong_128b_withSeed': 590720, u'_ZL11huge_dallocPvP7arena_t': 81792, u'_ZN7mozilla12PrintfTargetC2Ev': 380784, u'_ZN3lul10ByteReader14SetAddressSizeEh': 214288, u'_ZN7mozilla10JSONWriter16NewVectorEntriesEv': 239344, u'_ZZNK7mozilla12baseprofiler13ProfileBuffer19StreamSamplesToJSONERNS0_20SpliceableJSONWriterEidRNS0_12UniqueStacksEENK3$_0clEPNS_20ProfileChunkedBuffer6ReaderE': 248960, u'LZ4F_freeCompressionContext': 489984, u'_ZN7mozilla24ProfileBufferEntryReaderpLEj': 297248, u'_ZN7mozilla28base_profiler_markers_detailL34AddMarkerWithOptionalStackToBufferINS_12baseprofiler7markers10TextMarkerEJNS_18ProfilerStringViewIcEEEEENS_23ProfileBufferBlockIndexERNS_20ProfileChunkedBufferERKS6_RKNS_14MarkerCategoryEONS_13MarkerOptionsEDpRKT0_': 341488, u'_ZN7mozilla9TimeStamp15UpdateFuzzyTimeEl': 387728, u'_ZNK7mozilla12baseprofiler18ProfileBufferEntry9GetStringEv': 135680, u'_ZN3lul7TestFn2EPNS_3LULEPKcS3_': 364720, u'got.getpid': 766808, u'_ZNSt6vectorIN3lul7RuleSetESaIS1_EE17_M_realloc_insertIJRKS1_EEEvN9__gnu_cxx17__normal_iteratorIPS1_S3_EEDpOT_': 369552, u'_ZN7mozilla6detail21ConditionVariableImpl12platformDataEv': 374368, u'_ZN7mozilla9TimeStamp18GetFuzzyfoxEnabledEv': 387280, u'_ZN7mozilla20ProfileChunkedBuffer6Reader22SingleChunkDataAsEntryEv': 332752, u'_ZN12_GLOBAL__N_124mStartExcludingSuspendMsE': 775072, u'plt.pthread_mutex_init': 50912, u'_ZN7mozilla12baseprofiler22profiler_add_js_markerEPKcS2_': 209792, u'perror': 50000, u'_ZNK5blink7Decimal8toDoubleEv': 400256, u'_ZN7arena_t11MallocLargeEmb': 65024, u'_ZNK7mozilla12baseprofiler13ProfileBuffer19StreamSamplesToJSONERNS0_20SpliceableJSONWriterEidRNS0_12UniqueStacksE': 140240, u'_ZN7mozilla12baseprofiler12UniqueStacks24SpliceStackTableElementsERNS0_20SpliceableJSONWriterE': 140000, u'_ZNK7mozilla39ProfileBufferChunkManagerWithLocalLimit12MaxTotalSizeEv': 307168, u'got.sysconf': 766304, u'XXH3_128bits_withSeed': 589408, u'XXH32_freeState': 566144, u'_ZN3lul13CallFrameInfo8Reporter15EmptyStateStackEyNS0_9EntryKindEy': 226944, u'_ZNK7mozilla20ProfileChunkedBuffer4ReadIZNS_24ProfileBufferEntryWriter10SerializerIS0_E5BytesERKS0_EUlPNS0_6ReaderEE_EEDaOT_': 332512, u'_ZGVZN7mozilla28base_profiler_markers_detail23MarkerTypeSerializationINS_12baseprofiler7markers10TextMarkerEE9SerializeIJNSt7__cxx1112basic_stringIcSt11char_traitsIcESaIcEEEEEENS_23ProfileBufferBlockIndexERNS_20ProfileChunkedBufferERKNS_18ProfilerStringViewIcEERKNS_14MarkerCategoryEONS_13MarkerOptionsEDpRKT_E3tag': 774728, u'_ZN3lulL19CmpRuleSetsByAddrLEERKNS_7RuleSetES2_': 356096, u'_ZN7mozilla12baseprofiler17UniqueJSONStringsD1Ev': 144000, u'plt.gettimeofday': 51056, u'_ZN9AllocatorI15MozJemallocBaseE17moz_arena_reallocEmPvm': 87616, u'_ZN3lul3LUL6UnwindEPmS1_S1_S1_mPNS_10UnwindRegsEPNS_10StackImageE': 362608, u'_ZL3HEX': 689168, u'_ZN7mozilla10JSONWriter15StartCollectionERKNS_4SpanIKcLm18446744073709551615EEES5_NS0_15CollectionStyleE': 238960, u'posix_memalign': 72416, u'moz_xrealloc': 119904, u'_ZN7mozilla12baseprofiler13ProfileBuffer19CollectCodeLocationEPKcS3_jmRKNS_5MaybeIjEES7_RKNS4_INS0_21ProfilingCategoryPairEEE': 132768, u'_ZN7mozilla24ProfileBufferEntryReader12DeserializerINS_20ProfileChunkedBufferEE8ReadIntoERS0_RS2_': 325616, u'_ZN4GMutC2Ev': 117184, u'_ZN3lul13CallFrameInfo13ReadFDEFieldsEPNS0_3FDEE': 223408, u'_ZN17double_conversionL7AdvanceIPKcEEbPT_tiRS3_': 651456, u'_ZNKSt7__cxx1112basic_stringIcSt11char_traitsIcESaIcEE4findEPKcmm': 51168, u'plt.strcmp': 50752, u'_ZN3lul16DwarfCFIToModule17ValExpressionRuleEyiRKNSt7__cxx1112basic_stringIcSt11char_traitsIcESaIcEEE': 229952, u'_ZNSt14_Function_base13_Base_managerIZN7mozilla20ProfileChunkedBuffer15SetChunkManagerERNS1_25ProfileBufferChunkManagerERKNS1_12baseprofiler6detail25BaseProfilerMaybeAutoLockEEUlRKNS1_18ProfileBufferChunkEE_E10_M_managerERSt9_Any_dataRKSF_St18_Manager_operation': 272240, u'_ZN17double_conversionL16IsHexFloatStringIPKtEEbT_S3_tb': 656256, u'LZ4_resetStreamHC_fast': 496288, u'_ZN7mozilla24ProfileBufferEntryWriter12WriteObjectsIJNS_22ProfileBufferEntryKindENS_13MarkerOptionsENS_18ProfilerStringViewIcEENS_14MarkerCategoryEhS5_EEEvDpRKT_': 339792, u'_ZN7mozilla12baseprofiler13ProfileBuffer20CollectOverheadStatsENS_16BaseTimeDurationINS_27TimeDurationValueCalculatorEEES4_S4_S4_S4_': 133552, u'_ZN7mozilla12baseprofiler22profiler_register_pageEmmRKNSt7__cxx1112basic_stringIcSt11char_traitsIcESaIcEEEm': 205648, u'_ZN7mozilla24ProfileBufferEntryWriter12WriteObjectsIJNS_22ProfileBufferEntryKindENS_13MarkerOptionsENS_18ProfilerStringViewIcEENS_14MarkerCategoryEhEEEvDpRKT_': 333088, u'LZ4F_compressBlock_continue': 495552, u'_ZThn8_N7mozilla39ProfileBufferChunkManagerWithLocalLimitD0Ev': 310080, u'_ZNK3lul13CallFrameInfo13ValOffsetRule6getTagEv': 317008, u'_ZN3lul10ByteReaderC2ENS_10EndiannessE': 213936, u'_ZL19opt_randomize_small': 767272, u'_ZN5blink7Decimal3nanEv': 395568, u'got.strtol': 766760, u'malloc_good_size': 72688, u'got._ZNSt7__cxx1112basic_stringIcSt11char_traitsIcESaIcEE10_M_replaceEmmPKcm': 766880, u'_ZNSt9basic_iosIcSt11char_traitsIcEE5clearESt12_Ios_Iostate': 51136, u'_ZSt16__ostream_insertIcSt11char_traitsIcEERSt13basic_ostreamIT_T0_ES6_PKS3_l': 50416, u'got.pthread_condattr_setclock': 766440, u'_ZN9AllocatorI15MozJemallocBaseE6mallocEm': 83376, u'got.dlopen': 766816, u'XXH3_64bits': 570016, u'_ZN7mozilla12baseprofiler14ProfilingStackD2Ev': 160448, u'XXH128_isEqual': 600144, u'_ZN12RedBlackTreeI7arena_t14ArenaTreeTraitE11MoveRedLeftENS2_8TreeNodeE': 94048, u'madvise': 50512, u'_ZSt11__remove_ifIP6RefPtrIN7mozilla12baseprofiler15PageInformationEEN9__gnu_cxx5__ops10_Iter_predIZNS1_6VectorIS4_Lm0ENS1_17MallocAllocPolicyEE7eraseIfIZNS2_8ActivePS19DiscardExpiredPagesERKNS2_10PSAutoLockEEUlRKS4_E_EEvT_EUlSI_E_EEESK_SK_SK_T0_': 313696, u'_ZNSt17_Function_handlerIFvRKN7mozilla18ProfileBufferChunkEEZNS0_20ProfileChunkedBuffer15SetChunkManagerERNS0_25ProfileBufferChunkManagerERKNS0_12baseprofiler6detail25BaseProfilerMaybeAutoLockEEUlS3_E_E9_M_invokeERKSt9_Any_dataS3_': 272176, u'pthread_mutex_destroy': 50464, u'_ZN7mozilla12baseprofiler18ProfileBufferEntryC1ENS_22ProfileBufferEntryKindEPc': 135584, u'plt.clock_getres': 51360, u'_ZNSt13basic_filebufIcSt11char_traitsIcEE5closeEv': 49360, u'_ZN7mozilla12baseprofiler18ProfileBufferEntryC1ENS_22ProfileBufferEntryKindEPv': 135600, u'_ZN12RedBlackTreeI7arena_t14ArenaTreeTraitE6InsertENS2_8TreeNodeE': 104544, u'plt.dlclose': 49920, u'_ZTVN7mozilla12SprintfStateINS_17MallocAllocPolicyEEE': 764896, u'_ZNK3lul13CallFrameInfo13UndefinedRule6getTagEv': 315840, u'_ZN3lul10ByteReader17ReadInitialLengthEPKcPm': 214336, u'_ZNSt7__cxx1112basic_stringIcSt11char_traitsIcESaIcEEC2ERKS4_': 50720, u'_ZNK5blink7Decimal5roundEv': 399936, u'_ZN7mozilla22TimespecToMicrosecondsE8timespec': 373952, u'_ZN3lul20UniqueStringUniverse14ToUniqueStringENSt7__cxx1112basic_stringIcSt11char_traitsIcESaIcEEE': 213280, u'got.fopen': 766624, u'got.clock_gettime': 766408, u'_ZSt9__find_ifIP6RefPtrIN7mozilla12baseprofiler15PageInformationEEN9__gnu_cxx5__ops10_Iter_predIZNS1_6VectorIS4_Lm0ENS1_17MallocAllocPolicyEE7eraseIfIZNS2_8ActivePS19DiscardExpiredPagesERKNS2_10PSAutoLockEEUlRKS4_E_EEvT_EUlSI_E_EEESK_SK_SK_T0_St26random_access_iterator_tag': 313888, u'_ZN7mozilla11sse_private12avx2_enabledE': 767230, u'_ZN7mozilla21EnsureCommandlineSafeIcEEvRiPPT_PPKS2_': 55328, u'plt.strerror_r': 49392, u'plt.madvise': 50512, u'_ZN7mozilla6detail9HashTableINS_12HashMapEntryINS_12baseprofiler12UniqueStacks8FrameKeyEjEENS_7HashMapIS5_jNS4_14FrameKeyHasherENS_17MallocAllocPolicyEE13MapHashPolicyES9_E11prepareHashERKS5_': 319520, u'plt.sigaction': 50624, u'_ZN7mozilla39ProfileBufferChunkManagerWithLocalLimit38MaybeRecycleChunkAndGetDeallocatedSizeEONS_9UniquePtrINS_18ProfileBufferChunkENS_13DefaultDeleteIS2_EEEERKNS_12baseprofiler6detail20BaseProfilerAutoLockE': 299152, u'_ZN17double_conversion6Bignum8RawBigitEi': 617808, u'XXH3_128bits_reset_withSecret': 593952, u'_ZN7mozilla12baseprofiler22ProfileBufferCollector22SamplePositionInBufferEv': 238464, u'_ZN7mozilla12baseprofiler18ProfileBufferEntryC2ENS_22ProfileBufferEntryKindEl': 135648, u'_ZN7mozilla12baseprofiler18ProfileBufferEntryC2ENS_22ProfileBufferEntryKindEm': 135664, u'_ZNK3lul13CallFrameInfo12RegisterRuleeqERKNS0_4RuleE': 316032, u'_ZN7mozilla12baseprofiler18ProfileBufferEntryC2ENS_22ProfileBufferEntryKindEi': 135632, u'LZ4F_compressBound': 490064, u'_ZN7mozilla12baseprofiler18ProfileBufferEntryC2ENS_22ProfileBufferEntryKindEd': 135616, u'_ZN5blink7Decimal11EncodedDataC1ENS0_4SignENS1_11FormatClassE': 392256, u'_ZN19DummyArenaAllocatorI9AllocatorI17ReplaceMallocBaseEE18moz_arena_memalignEmmm': 95632, u'_ZN7mozilla12baseprofiler12UniqueStacks17StreamNonJITFrameERKNS1_8FrameKeyE': 138720, u'_ZGVZN17double_conversion23DoubleToStringConverter19EcmaScriptConverterEvE9converter': 776216, u'_ZN7arena_t11MallocSmallEmb': 80432, u'_ZTVN7mozilla12baseprofiler22ProfileBufferCollectorE': 763256, u'_ZN17double_conversion6Bignum21DivideModuloIntBignumERKS0_': 626480, u'_ZN7mozilla39ProfileBufferChunkManagerWithLocalLimit26DiscardOldestReleasedChunkERKNS_12baseprofiler6detail20BaseProfilerAutoLockE': 298976, u'_ZN3lul13CallFrameInfo7Handler18PersonalityRoutineEyb': 238896, u'_ZN7mozilla11sse_private13ssse3_enabledE': 767225, u'got.fread': 766840, u'_ZN5Debug17jemalloc_ptr_infoEPKv': 66384, u'_ZN3lul16DwarfCFIToModule8Reporter30ExpressionCouldNotBeSummarisedEmPKNS_12UniqueStringE': 230384, u'_ZN7mozilla12baseprofiler12UniqueStacks18GetOrAddStackIndexERKNS1_8StackKeyE': 136704, u'pthread_condattr_destroy': 49744, u'_ZN7mozilla17AutoProfilerLabelD2Ev': 373664, u'_ZN12RedBlackTreeI13extent_node_t15ExtentTreeTraitE6RemoveENS2_8TreeNodeE': 78240, u'_ZN7mozilla20ProfileChunkedBuffer17ResetChunkManagerEv': 57632, u'_ZN7mozilla12baseprofiler8ActivePSC2ERKNS0_10PSAutoLockENS_10PowerOfTwoIjEEdjPPKcjRKNS_5MaybeIdEE': 305504, u'_ZN7mozilla12baseprofiler7SamplerC1ERKNS0_10PSAutoLockE': 175024, u'_ZZN7mozilla28base_profiler_markers_detail23MarkerTypeSerializationINS_12baseprofiler7markers10TextMarkerEE9SerializeIJNSt7__cxx1112basic_stringIcSt11char_traitsIcESaIcEEEEEENS_23ProfileBufferBlockIndexERNS_20ProfileChunkedBufferERKNS_18ProfilerStringViewIcEERKNS_14MarkerCategoryEONS_13MarkerOptionsEDpRKT_E3tag': 774720, u'_ZN5blink7DecimalC1ERKNS0_11EncodedDataE': 392768, u'LZ4_loadDict': 426976, u'sem_init': 51200, u'got._ZNSt6locale7classicEv': 766720, u'LZ4_decompress_safe_withPrefix64k': 458560, u'_ZZN17double_conversion23DoubleToStringConverter19EcmaScriptConverterEvE9converter': 776168, u'_ZN7mozilla12baseprofiler15PageInformationC2EmmRKNSt7__cxx1112basic_stringIcSt11char_traitsIcESaIcEEEm': 131152, u'LZ4_compress_HC_extStateHC': 496416, u'LZ4_compress_destSize': 422048, u'XXH3_64bits_withSecret': 571904, u'_ZNK17double_conversion23StringToDoubleConverter14StringToDoubleEPKtiPi': 644320, u'_ZN7mozilla11Compression3LZ421compressLimitedOutputEPKcmPcm': 601856, u'_ZN17double_conversion6Bignum20MultiplyByPowerOfTenEi': 618736, u'_ZNK17double_conversion23DoubleToStringConverter20ToShortestIeeeNumberEdPNS_13StringBuilderENS0_8DtoaModeE': 630992, u'LZ4_compressHC_continue': 500048, u'gMozCrashReason': 775088, u'_ZN7mozilla28base_profiler_markers_detailL18sDeserializerCountE': 774680, u'_Z13read_procmapsPN3lul3LULE': 366608, u'_ZNK5blink7DecimalmlERKS0_': 394128, u'_ZNKSt7__cxx1112basic_stringIcSt11char_traitsIcESaIcEE7compareEPKc': 49440, u'_ZN5blink7Decimal8infinityENS0_4SignE': 396256, u'plt._ZSt24__throw_out_of_range_fmtPKcz': 50976, u'moz_xmemdup': 120128, u'LZ4F_compressBlock': 495344, u'_ZN7mozilla12baseprofiler13SamplerThread10SleepMicroEj': 174688, u'got._ZSt7getlineIcSt11char_traitsIcESaIcEERSt13basic_istreamIT_T0_ES7_RNSt7__cxx1112basic_stringIS4_S5_T1_EES4_': 767040, u'XXH3_64bits_reset': 577552, u'_ZL15_malloc_messageIJPKcPcS1_EEvS1_DpT_': 80304, u'__dso_handle': 767104, u'_ZN7mozilla12PrintfTarget6fill_nEPKciiiii': 377424, u'_ZN7mozilla14AwakeTimeStamp8NowLoResEv': 374000, u'_ZN7mozilla28base_profiler_markers_detail17AddMarkerToBufferINS_12baseprofiler7markers10TextMarkerEJNS_18ProfilerStringViewIcEEEEENS_23ProfileBufferBlockIndexERNS_20ProfileChunkedBufferERKS6_RKNS_14MarkerCategoryEONS_13MarkerOptionsEPFbS9_NS_19StackCaptureOptionsEEDpRKT0_': 340592, u'_ZSt9use_facetISt5ctypeIcEERKT_RKSt6locale': 49616, u'_ZTVN7mozilla6detail13SprintfAppendE': 761920, u'_ZN7mozilla12baseprofiler18ProfiledThreadDataD2Ev': 144960, u'_ZN7mozilla12baseprofiler16RegisteredThreadC2EPNS0_10ThreadInfoEPv': 160640, u'_ZN7mozilla6detail13SprintfAppend6appendEPKcm': 55952, u'_ZN17double_conversionL17RadixStringToIeeeILi3EPcEEdPT0_S2_btbbdbPb': 654544, u'got.sigemptyset': 766680, u'XXH3_128bits_update': 594576, u'LZ4_compress_fast_extState': 402688, u'_ZNK17double_conversion23StringToDoubleConverter13StringToFloatEPKtiPi': 648144, u'_ZZL17GetKernelPageSizevE16kernel_page_size': 767984, u'_ZN5blink7DecimalaSERKS0_': 392832, u'_ZN7mozilla12baseprofiler18ProfileBufferEntryC1ENS_22ProfileBufferEntryKindEi': 135632, u'_ZN7mozilla12baseprofiler18profiler_is_pausedEv': 198432, u'_ZN7mozilla12baseprofiler18ProfileBufferEntryC1ENS_22ProfileBufferEntryKindEm': 135664, u'_Z14SprintfLiteralILm150EEiRAT__cPKcz': 356112, u'_ZN7mozilla12baseprofiler12UniqueStacksD2Ev': 151152, u'got._ZNSt13basic_filebufIcSt11char_traitsIcEE5closeEv': 766056, u'_Z14SprintfLiteralILm100EEiRAT__cPKcz': 228432, u'_ZN7mozilla12baseprofiler22ProfileBufferCollector16BufferRangeStartEv': 238496, u'got._ZNSt7__cxx1112basic_stringIcSt11char_traitsIcESaIcEEC2ERKS4_': 766736, u'_ZN7arena_t10MallocHugeEmb': 65808, u'_ZN7mozilla12baseprofiler18ProfileBufferEntryC1ENS_22ProfileBufferEntryKindEd': 135616, u'_ZN7mozilla12baseprofiler13ProfileBufferC2ERNS_20ProfileChunkedBufferE': 131968, u'XXH64_digest': 568480, u'_ZN7mozilla12baseprofiler6CorePSD2Ev': 303104, u'_ZN7mozilla12baseprofilerL21locked_profiler_startERKNS0_10PSAutoLockENS_10PowerOfTwoIjEEdjPPKcjRKNS_5MaybeIdEE': 181536, u'_ZN3lul16DwarfCFIToModule8ReporterC2EPFvPKcERKNSt7__cxx1112basic_stringIcSt11char_traitsIcESaIcEEESD_': 349024, u'got.clock_getres': 767056, u'_ZN7mozilla20ProfileChunkedBuffer7PutFromEPKvj': 132400, u'_ZNK7mozilla17AwakeTimeDuration9ToSecondsEv': 373744, u'_ZTVN7mozilla12baseprofiler20ChunkedJSONWriteFuncE': 763912, u'plt.__vfprintf_chk': 49424, u'_ZN3lul13CallFrameInfo5State9DoRestoreEj': 220208, u'_edata': 767192, u'_ZN7mozilla12baseprofiler20SpliceableJSONWriter13TakeAndSpliceEONS0_20ChunkedJSONWriteFuncE': 247328, u'_ZZL19WalkTheStackEnabledvE6result': 774976, u'XXH3_64bits_digest': 581760, u'_ZL10pages_trimPvmmm': 73744, u'_ZNK3lul13CallFrameInfo13SameValueRule4CopyEv': 315936, u'_ZN7mozilla31ProfileBufferChunkManagerSingle31PeekExtantReleasedChunksAndLockEv': 241616, u'_ZN5blink7DecimalC2ERKNS0_11EncodedDataE': 392768, u'_ZL13gChunksBySize': 767896, u'_ZN7mozilla28base_profiler_markers_detail23MarkerTypeSerializationINS_12baseprofiler7markers10TextMarkerEE11DeserializeERNS_24ProfileBufferEntryReaderERNS2_20SpliceableJSONWriterE': 335136, u'got._Unwind_GetIP': 766656, u'_ZNSt6vectorIN7mozilla7VariantIJNS0_12MarkerSchema11DynamicDataENS2_10StaticDataEEEESaIS5_EED2Ev': 289824, u'_ZN17double_conversion13StrtodTrimmedENS_6VectorIKcEEi': 648176, u'pthread_mutex_unlock': 49936, u'_ZL11shaCompressPVjPKj': 604080, u'_ZN7mozilla12baseprofiler13ProfileBuffer8AddEntryERNS_20ProfileChunkedBufferERKNS0_18ProfileBufferEntryE': 132352, u'_ZN3lul14ReadSymbolDataERKNSt7__cxx1112basic_stringIcSt11char_traitsIcESaIcEEERKSt6vectorIS5_SaIS5_EEPNS_6SecMapEPvmPNS_20UniqueStringUniverseEPFvPKcE': 235808, u'_ZN12RedBlackTreeI17arena_chunk_map_t17ArenaRunTreeTraitE12MoveRedRightENS2_8TreeNodeE': 104000, u'_ZL16gChunksByAddress': 767888, u'_ZTVN3lul13CallFrameInfo13UndefinedRuleE': 764416, u'syscall': 49264, u'_ZN7mozilla12PrintfTarget6vprintEPKcP13__va_list_tag': 380816, u'_ZNSt17_Function_handlerIFvN7mozilla9UniquePtrINS0_18ProfileBufferChunkENS0_13DefaultDeleteIS2_EEEEEZNS0_20ProfileChunkedBuffer12RequestChunkERKNS0_12baseprofiler6detail25BaseProfilerMaybeAutoLockEEUlS5_E_E9_M_invokeERKSt9_Any_dataOS5_': 243584, u'_ZN10StackTrace17StackWalkCallbackEjPvS0_S0_': 108912, u'_ZN3lul13CallFrameInfo13ValOffsetRuleD0Ev': 316800, u'_ZL15sStdoutOrStderr': 768004, u'floor': 51120, u'_ZN7mozilla6VectorI6RefPtrINS_12baseprofiler15PageInformationEELm0ENS_17MallocAllocPolicyEE7eraseIfIZNS2_6CorePS20RemoveRegisteredPageERKNS2_10PSAutoLockEmEUlRKS4_E_EEvT_': 314176, u'got.nanosleep': 766120, u'_ZN7mozilla20ProfileChunkedBuffer8ReadEachIZNS0_14AppendContentsERKS0_EUlRNS_24ProfileBufferEntryReaderEE_EEvPKNS_18ProfileBufferChunkES9_OT_': 295008, u'_ZL16sMmapAccessScope.0.0': 32, u'_ZL15_malloc_messageIJPKcEEvS1_DpT_': 70928, u'got.tolower': 766800, u'_ZN7mozilla12baseprofiler12UniqueStacks11StreamStackERKNS1_8StackKeyE': 138304, u'got.pthread_cond_wait': 766872, u'got._ZSt29_Rb_tree_insert_and_rebalancebPSt18_Rb_tree_node_baseS0_RS_': 766040, u'_ZN7mozilla14PrefetchMemoryEPhm': 58176, u'plt.__cxa_finalize': 51440, u'got._ZTVSt13basic_filebufIcSt11char_traitsIcEE': 765880, u'_ZN3lul6SecMapC1EPFvPKcE': 354064, u'moz_arena_realloc': 73312, u'_ZN7mozilla10JSONWriter13scSpaceStringE': 763664, u'_ZN9AllocatorI15MozJemallocBaseE28moz_create_arena_with_paramsEP14arena_params_s': 86896, u'moz_xmalloc': 119664, u'got.readlink': 766520, u'_ZTVN7mozilla12PrintfTargetE': 765024, u'_ZN17double_conversion12_GLOBAL__N_116ConsumeSubStringIPKtEEbPT_S4_PKcb': 655824, u'_ZNK5blink7Decimal11EncodedDataeqERKS1_': 392480, u'_ZTVN7mozilla12baseprofiler20SpliceableJSONWriterE': 763952, u'__strcat_chk': 50160, u'_ZN3lul14FindElfSectionEPKvPKcjPS1_PiS5_': 236416, u'got.strcpy': 766424, u'_ZL4initv': 71536, u'_ZNK7mozilla14AwakeTimeStampplERKNS_17AwakeTimeDurationE': 373904, u'LZ4F_flush': 490448, u'_ZZN17double_conversion12_GLOBAL__N_17ToLowerEcE5cType': 776224, u'_ZNK7mozilla12baseprofiler18ProfileBufferEntry9GetUint64Ev': 135760, u'_ZL14huge_allocated': 767328, u'plt.__cxa_guard_release': 49840, u'_ZN7mozilla6detail9HashTableINS_12HashMapEntryIPvNS_7HashMapImNS_6VectorINS_12baseprofiler18CounterKeyedSampleELm0ENS_17MallocAllocPolicyEEENS_13DefaultHasherImvEES8_EEEENS4_IS3_SC_NSA_IS3_vEES8_E13MapHashPolicyES8_E15changeTableSizeEjNSH_15FailureBehaviorE': 266720, u'_ZNK7mozilla14AwakeTimeStampmiERKS0_': 373888, u'LZ4F_compressBlockHC_continue': 495792, u'_ZN3lul16DwarfCFIToModuleD0Ev': 238880, u'XXH3_hashLong_64b_withSeed': 574800, u'_ZN7mozilla12RandomUint64Ev': 603456, u'sem_wait': 50400, u'_ZN7mozilla6detail9HashTableINS_12HashMapEntryImNS_6VectorINS_12baseprofiler18CounterKeyedSampleELm0ENS_17MallocAllocPolicyEEEEENS_7HashMapImS7_NS_13DefaultHasherImvEES6_E13MapHashPolicyES6_E15changeTableSizeEjNSE_15FailureBehaviorE': 267792, u'__memcpy_chk': 51104, u'LZ4_resetStream_fast': 426816, u'XXH3_kSecret': 691456, u'_ZN9AllocatorI15MozJemallocBaseE16malloc_good_sizeEm': 84832, u'LZ4_decompress_safe': 448768, u'got._ZNKSt7__cxx1112basic_stringIcSt11char_traitsIcESaIcEE4copyEPcmm': 766024, u'_ZN7mozilla24ProfileBufferEntryWriter15WriteFromReaderERNS_24ProfileBufferEntryReaderEj': 297072, u'get_bridge': 71504, u'got.exit': 766648, u'_ZN7mozilla12baseprofiler28profiler_add_sampled_counterEPNS0_17BaseProfilerCountE': 201424, u'_ZN7mozilla39ProfileBufferChunkManagerWithLocalLimit35UnlockAfterPeekExtantReleasedChunksEv': 309168, u'_ZGVZN7mozilla28base_profiler_markers_detail20CachedBaseCoreBufferEvE10coreBuffer': 774696, u'got._ZSt24__throw_out_of_range_fmtPKcz': 766864, u'_ZGVZN7mozilla12baseprofiler7LogTestEiE8maxLevel': 774552, u'_ZNK5blink7DecimalleERKS0_': 396928, u'_ZN7mozilla10JSONWriter6ScalarERKNS_4SpanIKcLm18446744073709551615EEES5_': 248080, u'got.write': 766168, u'_ZN17double_conversion6Bignum7CompareERKS0_S2_': 628432, u'_Z14SprintfLiteralILm3EEiRAT__cPKcz': 130896, u'_ZN7mozilla12baseprofiler22ProfileBufferCollector21CollectNativeLeafAddrEPv': 135232, u'_ZN5blink7Decimal11EncodedDataC1ENS0_4SignEim': 392288, u'_ZNK3lul5LExpr8ShowRuleB5cxx11EPKc': 352352, u'_ZN7mozilla6detail14InChunkPointer28AdvanceToGlobalRangePositionEm': 295840, u'_ZN7mozilla31ProfileBufferChunkManagerSingleD2Ev': 174848, u'_ZN7mozilla12baseprofiler18ProfileBufferEntryC2ENS_22ProfileBufferEntryKindEPKc': 135568, u'plt.usleep': 50800, u'_ZNK3lul6SecMap19SizeOfIncludingThisEPFmPKvE': 356416, u'_ZN17double_conversionL17RadixStringToIeeeILi4EPKtEEdPT0_S3_btbbdbPb': 657248, u'_ZN9AllocatorI15MozJemallocBaseE4freeEPv': 83616, u'_ZN7mozilla12baseprofiler23StreamSamplesAndMarkersEPKciRKNS0_13ProfileBufferERNS0_20SpliceableJSONWriterERKNSt7__cxx1112basic_stringIcSt11char_traitsIcESaIcEEESF_RKNS_9TimeStampESI_SI_dRNS0_12UniqueStacksE': 147856, u'_ZN7mozilla12baseprofiler18ProfileBufferEntryC1Ev': 135536, u'_ZN7mozilla24ProfileBufferEntryReader9ReadBytesEPvj': 255744, u'got.pthread_condattr_destroy': 766248, u'__vfprintf_chk': 49424, u'got.__cxa_atexit': 766384, u'_ZN3lul13CallFrameInfo5State14DoDefCFAOffsetEl': 220592, u'moz_arena_memalign': 73456, u'_ZNK7mozilla4SpanIhLm18446744073709551615EE4FromEm': 244208, u'_ZSt16__introsort_loopIPSt4pairIPN7mozilla12baseprofiler16RegisteredThreadEPNS2_18ProfiledThreadDataEElN9__gnu_cxx5__ops15_Iter_comp_iterIZNS2_8ActivePS15ProfiledThreadsERKNS2_10PSAutoLockEEUlRKS7_SH_E_EEEvT_SK_T0_T1_': 292416, u'_ZN7mozilla28base_profiler_markers_detail9Streaming25TagForMarkerTypeFunctionsEPFvRNS_24ProfileBufferEntryReaderERNS_12baseprofiler20SpliceableJSONWriterEEPFNS_4SpanIKcLm18446744073709551615EEEvEPFNS_12MarkerSchemaEvE': 153392, u'_ZN9AllocatorI15MozJemallocBaseE13aligned_allocEmm': 84176, u'_ZN5blink7DecimalpLERKS0_': 392864, u'_ZN7mozilla6VectorINS_12baseprofiler8ActivePS11ExitProfileELm0ENS_17MallocAllocPolicyEE13growStorageByEm': 303856, u'_ZSt11__make_heapIN9__gnu_cxx17__normal_iteratorIP13SharedLibrarySt6vectorIS2_SaIS2_EEEENS0_5__ops15_Iter_comp_iterIPFbRKS2_SB_EEEEvT_SF_RT0_': 273632, u'_ZN12RedBlackTreeI13extent_node_t17ExtentTreeSzTraitE6RemoveENS2_8TreeNodeE': 75440, u'_ZN7mozilla39ProfileBufferChunkManagerWithLocalLimit8GetChunkEv': 307184, u'_ZN7mozilla12baseprofiler13SamplerThread3RunEv': 168800, u'_ZN12_GLOBAL__N_124mStartIncludingSuspendMsE': 775056, u'_ZNK7mozilla12baseprofiler18ProfileBufferEntry13CopyCharsIntoERA8_c': 135776, u'_ZN17double_conversion6Bignum9AddUInt64Em': 620032, u'fopen': 50496, u'moz_arena_calloc': 73232, u'_ZN12RedBlackTreeI13arena_chunk_t20ArenaDirtyChunkTraitE6RemoveENS2_8TreeNodeE': 99408, u'_ZSt18_Rb_tree_decrementPSt18_Rb_tree_node_base': 50240, u'_ZL14replace_vallocm': 108528, u'_ZN5blink7Decimal13alignOperandsERKS0_S2_': 395600, u'_ZN7mozilla14AwakeTimeStampmIERKNS_17AwakeTimeDurationE': 373936, u'_ZN19ReplaceMallocBridge15IsPHCAllocationEPKvPN7mozilla3phc8AddrInfoE': 108800, u'LZ4_compressHC_continue_generic': 497984, u'_ZN13SharedLibraryC2ERKS_': 124880, u'_ZN7mozilla6detail21ConditionVariableImplD1Ev': 374384, u'_ZN7mozilla12baseprofiler6detail21IsThreadBeingProfiledEv': 208448, u'_ZN7mozilla12baseprofiler13ProfileBuffer19DuplicateLastSampleEiRKNS_9TimeStampERNS_5MaybeImEE': 141392, u'_ZSt19piecewise_construct': 684852, u'_ZN3lul3LUL13CountMappingsEv': 360528, u'_ZN3lulL21GetAndCheckStackTraceEPNS_3LULEPKc': 364000, u'_ZN15MmapAccessScope14IsInsideBufferEPv': 376208, u'pthread_mutex_init': 50912, u'_ZN7mozilla11Compression26LZ4FrameCompressionContextC1Eimbb': 602016, u'_ZN7mozilla24ProfileBufferEntryWriter10WriteBytesEPKvj': 244464, u'got.sem_destroy': 765976, u'strdup': 73632, u'_ZN7mozilla6UnusedE': 692048, u'_ZTVNSt7__cxx1119basic_ostringstreamIcSt11char_traitsIcESaIcEEE': 765856, u'plt.fputc': 50592, u'_ZN7mozilla12PrintfTarget5cvt_lEliiiiiPKc': 378192, u'_DYNAMIC': 765240, u'_ZN4GMut7preforkEv': 115504, u'_ZN7mozilla12baseprofiler17ProfilerBacktraceD1Ev': 152256, u'_ZN7mozilla9TimeStamp3NowEb': 388368, u'_ZL14MaybePageAllocRKN7mozilla5MaybeImEEmmb': 115568, u'gettimeofday': 51056, u'XXH128': 584224, u'_ZN3lul16DwarfCFIToModule13SameValueRuleEyi': 229504, u'plt.fputs': 50384, u'_ZN17SharedLibraryInfo10InitializeEv': 123824, u'_ZN5blink7Decimal10fromStringERKNSt7__cxx1112basic_stringIcSt11char_traitsIcESaIcEEE': 398672, u'_ZN7mozilla28base_profiler_markers_detail9Streaming18DeserializerForTagEh': 153600, u'_ZNSt13basic_filebufIcSt11char_traitsIcEE4openEPKcSt13_Ios_Openmode': 50048, u'plt._ZNSt13basic_filebufIcSt11char_traitsIcEE5closeEv': 49360, u'_ZN7mozilla23TimeStampInitializationD2Ev': 387312, u'_ZN7mozilla11sse_private14sse4_2_enabledE': 767228, u'_ZN3lul15RunLulUnitTestsEPiS0_PNS_3LULE': 366400, u'_ZN7mozilla12baseprofiler18ProfileBufferEntryC1ENS_22ProfileBufferEntryKindEl': 135648, u'plt.pthread_condattr_setclock': 50128, u'_ZN7mozilla12baseprofiler13profiler_timeEv': 199184, u'_ZZN3lul16DwarfCFIToModule8Reporter30ExpressionCouldNotBeSummarisedEmPKNS_12UniqueStringEE12n_complaints': 774656, u'_ZN7mozilla12baseprofiler27profiler_move_exit_profilesB5cxx11Ev': 195424, u'_ZL19dl_iterate_callbackP12dl_phdr_infomPv': 122064, u'XXH32_hashFromCanonical': 567360, u'got.fflush': 766616, u'sysconf': 49856, u'_ZL14base_committed': 767816, u'_ZN7mozillaL16sFuzzyfoxEnabledE': 774992, u'XXH64_reset': 567840, u'abort': 119648, u'_ZN7mozilla17CanPrefetchMemoryEv': 58160, u'moz_xmemalign': 120208, u'LZ4F_getFrameInfo': 491104, u'_ZN7mozilla7SHA1SumC2Ev': 603824, u'write': 49584, u'_ZN3lul6SecMap11AddPfxInstrENS_8PfxInstrE': 354400, u'plt.munmap': 49808, u'unsetenv': 50704, u'_ZNK17double_conversion23StringToDoubleConverter13StringToFloatEPKciPi': 648112, u'_Unwind_Backtrace': 49216, u'LZ4_favorDecompressionSpeed': 497312, u'got.dlclose': 766336, u'strcasecmp': 50320, u'_ZNK3lul13CallFrameInfo10OffsetRuleeqERKNS0_4RuleE': 316656, u'__GNU_EH_FRAME_HDR': 694336, u'_ZN15MmapAccessScope13CrashWithInfoEPv': 376256, u'plt._ZSt29_Rb_tree_insert_and_rebalancebPSt18_Rb_tree_node_baseS0_RS_': 49328, u'XXH32_digest': 566784, u'pthread_create': 49824, u'_ZN3lul13CallFrameInfo7RuleMap5ClearEv': 215680, u'_ZNK7mozilla12baseprofiler13ProfileBuffer28StreamProfilerOverheadToJSONERNS0_20SpliceableJSONWriterERKNS_9TimeStampEd': 140736, u'XXH64_update': 568016, u'_ZNSt12__basic_fileIcED1Ev': 51344, u'_ZZN7mozilla28base_profiler_markers_detail20CachedBaseCoreBufferEvE10coreBuffer': 774688, u'_ZN12_GLOBAL__N_112LoadDwarfCFIIN3lul10ElfClass64EEEbRKNSt7__cxx1112basic_stringIcSt11char_traitsIcESaIcEEEPKNT_4EhdrEPKcPKNSB_4ShdrEbSJ_SJ_bPNS1_6SecMapEmPNS1_20UniqueStringUniverseEPFvSG_E': 351168, u'_init': 49152, u'_Z25replace_moz_arena_reallocmPvm': 109824, u'LZ4F_createCompressionContext': 489920, u'__xpg_basename': 51152, u'moz_dispose_arena': 73104, u'_ZN7mozilla12baseprofiler12UniqueStacks11AppendFrameERKNS1_8StackKeyERKNS1_8FrameKeyE': 136592, u'_ZN7mozilla12baseprofiler13SamplerThreadC1ERKNS0_10PSAutoLockEjdbb': 175360, u'_ZN7mozilla21AutoProfilerLabelData11sGenerationE': 774808, u'_ZZN7mozilla28base_profiler_markers_detail23MarkerTypeSerializationINS_12baseprofiler7markers10TextMarkerEE9SerializeIJNS_18ProfilerStringViewIcEEEEENS_23ProfileBufferBlockIndexERNS_20ProfileChunkedBufferERKS8_RKNS_14MarkerCategoryEONS_13MarkerOptionsEDpRKT_E3tag': 774736, u'_ZN3lul13CallFrameInfo4Rule15SetBaseRegisterEj': 315680, u'main': 53024, u'LZ4_resetStream': 426784, u'_ZN3lul3LUL17NotifyBeforeUnmapEmm': 359872, u'_ZGVZN7mozilla28base_profiler_markers_detail23MarkerTypeSerializationIZNS0_L34AddMarkerWithOptionalStackToBufferINS_12baseprofiler7markers9NoPayloadEJEEENS_23ProfileBufferBlockIndexERNS_20ProfileChunkedBufferERKNS_18ProfilerStringViewIcEERKNS_14MarkerCategoryEONS_13MarkerOptionsEDpRKT0_E17NoPayloadUserDataE9SerializeIJEEES6_S8_SC_SF_SH_DpRKT_E3tag': 774712, u'LZ4F_getBlockSize': 485680, u'_ZNK5blink7Decimal9compareToERKS0_': 396464, u'_ZN7mozilla12baseprofiler13ProfileBuffer8AddEntryERKNS0_18ProfileBufferEntryE': 132592, u'_ZL20gOriginalMallocTable': 767344, u'_ZNSt8_Rb_treeINSt7__cxx1112basic_stringIcSt11char_traitsIcESaIcEEESt4pairIKS5_PN3lul12UniqueStringEESt10_Select1stISB_ESt4lessIS5_ESaISB_EE24_M_get_insert_unique_posERS7_': 343024, u'_ZN7mozilla6xgetbvEj': 59424, u'_ZN7mozilla12baseprofiler20profiler_get_profileEdbb': 190208, u'_ZN7mozilla31ProfileBufferChunkManagerSingle22ForgetUnreleasedChunksEv': 241424, u'got.pthread_self': 766392, u'got.memmove': 766912, u'_ZN7mozilla12baseprofiler30profiler_received_exit_profileERKNSt7__cxx1112basic_stringIcSt11char_traitsIcESaIcEEE': 194752, u'plt.memcpy': 49984, u'_ZN3lul13CallFrameInfo8Reporter22InvalidPointerEncodingEyh': 226320, u'memchr': 50352, u'plt.pthread_cond_signal': 49232, u'clock_gettime': 50064, u'_ZL7preforkv': 108656, u'_ZN3lul3LUL20NotifyExecutableAreaEmm': 359616, u'pthread_cond_signal': 49232, u'_ZNK5blink7Decimal5floorEv': 397968, u'_ZN7mozilla31ProfileBufferChunkManagerSingle35UnlockAfterPeekExtantReleasedChunksEv': 241632, u'_ZNK7mozilla39ProfileBufferChunkManagerWithLocalLimit19SizeOfExcludingThisEPFmPKvE': 308832, u'_ZNSt5dequeIN3lul13CallFrameInfo7RuleMapESaIS2_EE8pop_backEv': 344736, u'_ZN7mozilla6detail9MutexImplC1Ev': 376336, u'plt.memmove': 51072, u'_ZN12RedBlackTreeI17arena_chunk_map_t19ArenaAvailTreeTraitE11MoveRedLeftENS2_8TreeNodeE': 97712, u'_ZNK17double_conversion23DoubleToStringConverter27CreateDecimalRepresentationEPKciiiPNS_13StringBuilderE': 630080, u'_ZNSt8_Rb_treeINSt7__cxx1112basic_stringIcSt11char_traitsIcESaIcEEES5_St9_IdentityIS5_ESt4lessIS5_ESaIS5_EE8_M_eraseEPSt13_Rb_tree_nodeIS5_E': 289952, u'_ZN17double_conversion6Bignum15AssignHexStringENS_6VectorIKcEE': 620224, u'_ZNKSt12__basic_fileIcE7is_openEv': 49376, u'_ZL10SprintfBufPcmPKcz': 385968, u'_ZN7mozilla9UniquePtrINS_18ProfileBufferChunkENS_13DefaultDeleteIS1_EEED2Ev': 132288, u'_ZN7mozilla12baseprofiler21AppendSharedLibrariesERNS_10JSONWriterE': 161648, u'_ZNK7mozilla4SpanIKhLm18446744073709551615EE4LastEm': 255600, u'_GLOBAL__sub_I_Unified_cpp_mfbt0.cpp': 52544, u'_ZN7mozilla12baseprofilerL11paf_prepareEv': 302192, u'_Z14SprintfLiteralILm200EEiRAT__cPKcz': 231744, u'dec64table': 689872, u'got._ZTVNSt7__cxx1119basic_ostringstreamIcSt11char_traitsIcESaIcEEE': 765856, u'islower': 50656, u'pthread_condattr_init': 49312, u'_Unwind_GetIP': 50560, u'_ZN7mozilla6detail9HashTableINS_12HashMapEntryINS_12baseprofiler12UniqueStacks8FrameKeyEjEENS_7HashMapIS5_jNS4_14FrameKeyHasherENS_17MallocAllocPolicyEE13MapHashPolicyES9_E15changeTableSizeEjNSC_15FailureBehaviorE': 320592, u'_ZN7mozilla12SprintfStateINS_17MallocAllocPolicyEED2Ev': 340336, u'pthread_join': 49696, u'_ZN7mozilla9TimeStamp7StartupEv': 387952, u'_ZL21base_next_decommitted': 767808, u'_ZN6FileID19FindElfClassSectionINS_10ElfClass32EEEbPKcS3_NT_4WordEPPKvPm': 129520, u'_ZN7mozilla12baseprofilerL16StreamCategoriesERNS0_20SpliceableJSONWriterE': 277408, u'_ZN3lul13CallFrameInfo16ReportIncompleteEPNS0_5EntryE': 221840, u'open': 49904, u'_ZNK5blink7DecimaleqERKS0_': 396320, u'fprintf': 50816, u'_ZN7mozilla39ProfileBufferChunkManagerWithLocalLimit25SetChunkDestroyedCallbackEOSt8functionIFvRKNS_18ProfileBufferChunkEEE': 307984, u'_ZN5blink7DecimalmIERKS0_': 393424, u'plt.pthread_mutexattr_settype': 51264, u'_ZN6FileID29ConvertIdentifierToUUIDStringB5cxx11ERKSt6vectorIhSaIhEE': 130592, u'got.__fxstat': 766512, u'got._ZNKSt5ctypeIcE13_M_widen_initEv': 766592, u'got._ZSt18_Rb_tree_decrementPSt18_Rb_tree_node_base': 766496, u'_ZN7mozilla12baseprofiler8categoryL5OTHERE': 660088, u'_ZN9AllocatorI15MozJemallocBaseE17moz_dispose_arenaEm': 86960, u'_ZNK7mozilla12baseprofiler18ProfileBufferEntry9GetDoubleEv': 135712, u'plt.mprotect': 51040, u'_ZNK3lul13CallFrameInfo13UndefinedRuleeqERKNS0_4RuleE': 315776, u'plt.open': 49904, u'_ZN3lul13CallFrameInfo8Reporter20CIEPointerOutOfRangeEyy': 225728, u'_ZGVZ8phc_initE6bridge': 768520, u'LZ4_freeStreamDecode': 466848, u'_ZN5blink14DecimalPrivate7UInt12812multiplyHighEmm': 392192, u'_ZNSt8_Rb_treeINSt7__cxx1112basic_stringIcSt11char_traitsIcESaIcEEESt4pairIKS5_PN3lul12UniqueStringEESt10_Select1stISB_ESt4lessIS5_ESaISB_EE22_M_emplace_hint_uniqueIJRKSt21piecewise_construct_tSt5tupleIJRS7_EESM_IJEEEEESt17_Rb_tree_iteratorISB_ESt23_Rb_tree_const_iteratorISB_EDpOT_': 342048, u'plt.pthread_mutex_unlock': 49936, u'_ZN13BaseAllocator6mallocEm': 88448, u'_ZN7mozilla39ProfileBufferChunkManagerWithLocalLimit8GetChunkERKNS_12baseprofiler6detail20BaseProfilerAutoLockE': 298384, u'_ZN12RedBlackTreeI17arena_chunk_map_t17ArenaRunTreeTraitE11MoveRedLeftENS2_8TreeNodeE': 103696, u'_ZN7mozilla28base_profiler_markers_detail9Streaming24MarkerTypeFunctionsArrayEv': 153680, u'_ZN3lul6SecMapC2EPFvPKcE': 354064, u'_ZNK7mozilla12baseprofiler15PageInformation10StreamJSONERNS0_20SpliceableJSONWriterE': 131392, u'LZ4_compress_fast_continue': 427248, u'plt.dlsym': 51312, u'XXH64_copyState': 567776, u'_ZN9__gnu_cxx5__ops14_Iter_comp_valIZN7mozilla12baseprofiler8ActivePS15ProfiledThreadsERKNS3_10PSAutoLockEEUlRKSt4pairIPNS3_16RegisteredThreadEPNS3_18ProfiledThreadDataEESF_E_EclIPSD_SD_EEbT_RT0_': 293552, u'_ZZN7mozilla20ProfileChunkedBuffer16ReserveAndPutRawIZNS0_16ReserveAndPutRawIZNS_24ProfileBufferEntryReader12DeserializerIS0_E8ReadIntoERS3_RS0_EUlRNS_5MaybeINS_24ProfileBufferEntryWriterEEEE_EEDajOT_mEUlvE_SC_EEDaSE_OT0_RNS_12baseprofiler6detail25BaseProfilerMaybeAutoLockEmENKUlvE_clEv': 327584, u'_ZNSt7__cxx1112basic_stringIcSt11char_traitsIcESaIcEE9_M_assignERKS4_': 49760, u'_ZN7mozilla12baseprofiler20SpliceableJSONWriter13CopyAndSpliceERKNS0_20ChunkedJSONWriteFuncE': 143632, u'got._ZNSt8ios_baseC2Ev': 766112, u'_ZN7mozilla12baseprofiler27profiler_thread_is_sleepingEv': 208544, u'_ZL23_malloc_postfork_parentv': 90416, u'plt.__register_atfork': 49968, u'_ZN7mozilla12baseprofiler18ProfiledThreadDataC1EPNS0_10ThreadInfoE': 144896, u'_end': 776240, u'_ZN3lul16DwarfCFIToModule8ReporterD2Ev': 238704, u'_ZN7mozilla6detail14gChaosFeaturesE': 776132, u'jemalloc_free_dirty_pages': 72864, u'logalloc_init': 106896, u'_ZN7mozilla12baseprofiler28GetProfilingCategoryPairInfoENS0_21ProfilingCategoryPairE': 140176, u'_ZN7mozilla39ProfileBufferChunkManagerWithLocalLimit23GetExtantReleasedChunksEv': 308208, u'_ZN7mozilla12baseprofiler20OStreamJSONWriteFuncD0Ev': 305312, u'LZ4_decompress_fast_withPrefix64k': 462064, u'_ZTVN7mozilla12baseprofiler20OStreamJSONWriteFuncE': 764104, u'_ZN7mozilla12baseprofiler22PlatformDataDestructorclEPNS0_12PlatformDataE': 175744, u'_ZN7mozilla6detail21ConditionVariableImpl10notify_oneEv': 374432, u'pthread_cond_init': 50528, u'_Z25replace_jemalloc_ptr_infoPKvP19jemalloc_ptr_info_s': 109184, u'_ZN9AllocatorI15MozJemallocBaseE26jemalloc_purge_freed_pagesEv': 86432, u'_ZNK7mozilla31ProfileBufferChunkManagerSingle19SizeOfExcludingThisEPFmPKvE': 241440, u'_ZZNK7mozilla12baseprofiler13ProfileBuffer28StreamProfilerOverheadToJSONERNS0_20SpliceableJSONWriterERKNS_9TimeStampEdENK3$_1clEPNS_20ProfileChunkedBuffer6ReaderE': 256128, u'_ZL8base_mtx': 767752, u'_ZN5blink14DecimalPrivate19SpecialValueHandlerC2ERKNS_7DecimalES4_': 391776, u'got._ZNSt7__cxx1112basic_stringIcSt11char_traitsIcESaIcEE9_M_appendEPKcm': 766128, u'_ZN9AllocatorI15MozJemallocBaseE14moz_arena_freeEmPv': 87840, u'_ZGVZ13logalloc_initE6bridge': 768072, u'_ZN7mozilla10JSONWriter17scObjectEndStringE': 763744, u'_ZN7mozilla12baseprofiler33GetProfilerEnvVarsForChildProcessEOSt8functionIFvPKcS3_EE': 193488, u'plt.fgets': 51024, u'_ZN17double_conversion6Bignum19AssignDecimalStringENS_6VectorIKcEE': 618032, u'got.sem_post': 766352, u'_ZSt16__insertion_sortIN9__gnu_cxx17__normal_iteratorIP13SharedLibrarySt6vectorIS2_SaIS2_EEEENS0_5__ops15_Iter_comp_iterIPFbRKS2_SB_EEEEvT_SF_T0_': 275744, u'_ZN7mozilla6detail9MutexImplD2Ev': 376704, u'_ZN7mozilla29BaseTimeDurationPlatformUtils9ToSecondsEl': 387744, u'got.vsnprintf': 765832, u'got.__isoc99_sscanf': 766448, u'_ZN17double_conversion6Bignum12AssignUInt64Em': 617904, u'LZ4_freeStream': 426944, u'_ZN21AutoObjectMapperPOSIX3MapEPPvPmNSt7__cxx1112basic_stringIcSt11char_traitsIcESaIcEEE': 211568, u'XXH3_64bits_update': 578304, u'LZ4_uncompress_unknownOutputSize': 485408, u'_ZN3lul16DwarfCFIToModule12RegisterRuleEyii': 229600, u'pthread_mutex_trylock': 49408, u'_ZN7mozilla39ProfileBufferChunkManagerWithLocalLimit12RequestChunkEOSt8functionIFvNS_9UniquePtrINS_18ProfileBufferChunkENS_13DefaultDeleteIS3_EEEEEE': 307472, u'XXH3_hashLong_128b_withSecret': 587936, u'_ZN7mozilla28base_profiler_markers_detailL34AddMarkerWithOptionalStackToBufferINS_12baseprofiler7markers9NoPayloadEJEEENS_23ProfileBufferBlockIndexERNS_20ProfileChunkedBufferERKNS_18ProfilerStringViewIcEERKNS_14MarkerCategoryEONS_13MarkerOptionsEDpRKT0_': 330352, u'_ZN19DummyArenaAllocatorI9AllocatorI17ReplaceMallocBaseEE17moz_dispose_arenaEm': 95360, u'LZ4_freeHC': 500640, u'got.pthread_join': 766224, u'_ZNK7mozilla12baseprofiler13ProfileBuffer20StreamCountersToJSONERNS0_20SpliceableJSONWriterERKNS_9TimeStampEd': 140960, u'_ZN17double_conversion6Bignum6SquareEv': 623936, u'_Z14SprintfLiteralILm64EEiRAT__cPKcz': 248416, u'_ZN7mozilla12baseprofiler14profiler_pauseEv': 198576, u'__frame_dummy_init_array_entry': 761712, u'_ZN5Mutex4InitEv': 119312, u'fileno': 50256, u'plt.strncmp': 49680, u'_ZN3lul13CallFrameInfo5State8DoDefCFAEjl': 220480, u'_ZNSt14_Function_base13_Base_managerIZN7mozilla20ProfileChunkedBuffer12RequestChunkERKNS1_12baseprofiler6detail25BaseProfilerMaybeAutoLockEEUlNS1_9UniquePtrINS1_18ProfileBufferChunkENS1_13DefaultDeleteIS9_EEEEE_E10_M_managerERSt9_Any_dataRKSF_St18_Manager_operation': 243712, u'_ZN3lul16DwarfCFIToModule5EntryEmyyhRKNSt7__cxx1112basic_stringIcSt11char_traitsIcESaIcEEEj': 228688, u'_ZNSt3mapINSt7__cxx1112basic_stringIcSt11char_traitsIcESaIcEEEPN3lul12UniqueStringESt4lessIS5_ESaISt4pairIKS5_S8_EEEixERSC_': 213568, u'pthread_mutexattr_init': 50736, u'_ZN9AllocatorI15MozJemallocBaseE16moz_arena_callocEmmm': 87392, u'_ZN7mozilla6VectorIbLm8ENS_17MallocAllocPolicyEE13growStorageByEm': 240192, u'_ZN7mozilla12baseprofiler24profiler_get_buffer_infoEv': 196736, u'_ZTVN3lul13CallFrameInfo8ReporterE': 763312, u'_ZZL20arena_run_reg_dallocP11arena_run_tP11arena_bin_tPvmE9size_invs': 661808, u'_ZSt16__introsort_loopIN9__gnu_cxx17__normal_iteratorIPN3lul7RuleSetESt6vectorIS3_SaIS3_EEEElNS0_5__ops15_Iter_comp_iterIPFbRKS3_SC_EEEEvT_SG_T0_T1_': 370848, u'_ZNK5blink7DecimalltERKS0_': 396816, u'_ZN7mozilla28base_profiler_markers_detail23MarkerTypeSerializationIZNS0_L34AddMarkerWithOptionalStackToBufferINS_12baseprofiler7markers9NoPayloadEJEEENS_23ProfileBufferBlockIndexERNS_20ProfileChunkedBufferERKNS_18ProfilerStringViewIcEERKNS_14MarkerCategoryEONS_13MarkerOptionsEDpRKT0_E17NoPayloadUserDataE11DeserializeERNS_24ProfileBufferEntryReaderERNS3_20SpliceableJSONWriterE': 330896, u'_ZL17MmapSIGBUSHandleriP9siginfo_tPv': 375408, u'LZ4_uncompress': 485392, u'_ZN7mozilla11Compression28LZ4FrameDecompressionContextD2Ev': 602896, u'_ZN17double_conversion6StrtofENS_6VectorIKcEEi': 650544, u'_ZN7mozilla12baseprofiler6detail12RacyFeatures27IsActiveAndSamplingUnpausedEv': 161584, u'_ZN19DummyArenaAllocatorI9AllocatorI17ReplaceMallocBaseEE28moz_create_arena_with_paramsEP14arena_params_s': 95344, u'got._ZNSt7__cxx1112basic_stringIcSt11char_traitsIcESaIcEE9_M_assignERKS4_': 766256, u'got.munmap': 766280, u'_ZZZNK7mozilla12baseprofiler13ProfileBuffer19StreamSamplesToJSONERNS0_20SpliceableJSONWriterEidRNS0_12UniqueStacksEENK3$_0clEPNS_20ProfileChunkedBuffer6ReaderEE14preSymbolicate': 774664, u'LZ4_sizeofStateHC': 495824, u'LZ4F_createDecompressionContext': 490848, u'_ZNSt3mapIiPN3lul13CallFrameInfo4RuleESt4lessIiESaISt4pairIKiS3_EEEixERS7_': 215840, u'_ZN7arena_t12DeallocChunkEP13arena_chunk_t': 60416, u'_ZL4gMut': 768488, u'_ZN13SharedLibraryC2EmmmRKNSt7__cxx1112basic_stringIcSt11char_traitsIcESaIcEEES7_S7_S7_S7_S7_PKc': 126000, u'plt._ZNKSt7__cxx1112basic_stringIcSt11char_traitsIcESaIcEE7compareEmmRKS4_': 50640, u'plt._ZSt18_Rb_tree_incrementPKSt18_Rb_tree_node_base': 50448, u'_ZN7mozilla12baseprofilerL44locked_profiler_stream_json_for_this_processERKNS0_10PSAutoLockERNS0_20SpliceableJSONWriterEdbb': 164176, u'_ZL16replace_memalignmm': 115008, u'plt._ZSt18_Rb_tree_incrementPSt18_Rb_tree_node_base': 49888, u'_ZN7mozilla9TimeStamp20RecordProcessRestartEv': 387600, u'plt.__cxa_atexit': 50016, u'_Z14SprintfLiteralILm4096EEiRAT__cPKcz': 55056, u'_ZL19SharedLibraryAtPathPKcmmm': 122512, u'_ZN7mozilla12baseprofiler13ProfileBuffer16AddThreadIdEntryEi': 132688, u'LZ4HC_compress_generic_noDictCtx': 501040, u'_ZN7mozilla6detail9MutexImpl12mutexTryLockEv': 376880, u'register_tm_clones': 52736, u'got.sem_wait': 766576, u'got.__xpg_basename': 766952, u'moz_arena_malloc': 73168, u'MozStackWalk': 385136, u'_ZN17double_conversion8FastDtoaEdNS_12FastDtoaModeEiNS_6VectorIcEEPiS3_': 633568, u'__pthread_atfork': 659264, u'_ZN7mozilla6VectorINS_9UniquePtrIA_cNS_13DefaultDeleteIS2_EEEELm0ENS_17MallocAllocPolicyEE13growStorageByEm': 246528, u'_ZNK5blink7Decimal9remainderERKS0_': 399760, u'_ZN7mozilla6VectorISt4pairIPNS_12baseprofiler16RegisteredThreadEPNS2_18ProfiledThreadDataEELm0ENS_17MallocAllocPolicyEE13growStorageByEm': 292016, u'_ZN21AutoObjectMapperPOSIXD1Ev': 211536, u'aligned_alloc': 72496, u'_ZN7mozilla12baseprofiler17ProfilerBacktraceD2Ev': 152256, u'_ZN7mozilla9UniquePtrINS_31ProfileBufferChunkManagerSingleENS_13DefaultDeleteIS1_EEED2Ev': 209280, u'_Z11mozToStringB5cxx11d': 390256, u'_ZNK17double_conversion23StringToDoubleConverter14StringToDoubleEPKciPi': 640288, u'_Z11mozToStringB5cxx11l': 390592, u'_Z11mozToStringB5cxx11m': 391184, u'got.ceil': 766048, u'_ZN7mozilla31ProfileBufferChunkManagerSingle12RequestChunkEOSt8functionIFvNS_9UniquePtrINS_18ProfileBufferChunkENS_13DefaultDeleteIS3_EEEEEE': 241024, u'_ZN7mozilla11sse_private11aes_enabledE': 767231, u'_ZNKSt7__cxx1112basic_stringIcSt11char_traitsIcESaIcEE4copyEPcmm': 49296, u'_ZN3lul13CallFrameInfo7RuleMapaSERKS1_': 215408, u'plt._ZNSt8ios_baseD2Ev': 49536, u'_ZN19DummyArenaAllocatorI9AllocatorI17ReplaceMallocBaseEE16moz_arena_mallocEmm': 95376, u'LZ4_compressHC_withStateHC': 499520, u'_ZN3lul13CallFrameInfo8Reporter23UnusablePointerEncodingEyh': 226432, u'plt.__errno_location': 49248, u'_ZN7mozilla6detail9MutexImpl12platformDataEv': 376688, u'LZ4F_getErrorCode': 485616, u'_ZZN7mozilla6detail9HashTableINS_12HashMapEntryINS_12baseprofiler12UniqueStacks8FrameKeyEjEENS_7HashMapIS5_jNS4_14FrameKeyHasherENS_17MallocAllocPolicyEE13MapHashPolicyES9_E15changeTableSizeEjNSC_15FailureBehaviorEENKUlRNS0_9EntrySlotIS6_EEE_clESG_': 321456, u'_ZN3lul6SecMap7IsEmptyEv': 356384, u'plt._Unwind_Backtrace': 49216, u'_ZN9AllocatorI15MozJemallocBaseE8memalignEmm': 83744, u'plt._ZNSt8ios_baseC2Ev': 49472, u'_ZN7mozilla39ProfileBufferChunkManagerWithLocalLimit22ForgetUnreleasedChunksEv': 308560, u'got.mprotect': 766896, u'_ZN7mozilla31ProfileBufferChunkManagerSingle23GetExtantReleasedChunksEv': 241392, u'_ZThn8_N7mozilla39ProfileBufferChunkManagerWithLocalLimit23DestroyChunksAtOrBeforeENS_9TimeStampE': 310144, u'_ZNK17double_conversion23DoubleToStringConverter13ToExponentialEdiPNS_13StringBuilderE': 632096, u'_ZN17double_conversion6Bignum11PlusCompareERKS0_S2_S2_': 628624, u'_ZN15MmapAccessScopeD1Ev': 376112, u'_ZN7mozilla10JSONWriter13scEmptyStringE': 763728, u'_ZL13opt_dirty_max': 767112, u'got.strrchr': 766544, u'got.dlerror': 766272, u'_ZN7mozilla6detail9MutexImpl7tryLockEv': 376784, u'_ZN17double_conversion6Bignum12AssignUInt16Et': 617872, u'_ZN7mozilla6detail9HashTableINS_12HashMapEntryINS_12baseprofiler12UniqueStacks8StackKeyEjEENS_7HashMapIS5_jNS4_14StackKeyHasherENS_17MallocAllocPolicyEE13MapHashPolicyES9_E15changeTableSizeEjNSC_15FailureBehaviorE': 318672, u'__libc_csu_fini': 659248, u'_ZNSt6vectorIhSaIhEE17_M_default_appendEm': 130288, u'plt.readlink': 50288, u'deregister_tm_clones': 52688, u'calloc': 72160, u'got.bcmp': 766480, u'got._ZNSt7__cxx1112basic_stringIcSt11char_traitsIcESaIcEE9_M_createERmm': 766992, u'__do_global_dtors_aux_fini_array_entry': 761768, u'_ZN7mozilla12baseprofiler13profiler_initEPv': 176608, u'_ZTVN3lul13CallFrameInfo10OffsetRuleE': 764736, u'_ZN7mozilla12baseprofilerL18PrintUsageThenExitEi': 179584, u'got._ZNSt12__basic_fileIcED1Ev': 767048, u'plt.fread': 50928, u'_ZNK17double_conversion23DoubleToStringConverter19HandleSpecialValuesEdPNS_13StringBuilderE': 629264, u'_ZNSt6vectorI13SharedLibrarySaIS0_EE17_M_realloc_insertIJRKS0_EEEvN9__gnu_cxx17__normal_iteratorIPS0_S2_EEDpOT_': 124496, u'_ZN3lul3LULD2Ev': 356800, u'_ZN7mozilla12baseprofiler19TLSRegisteredThread17sRegisteredThreadE': 16, u'__bss_start': 767192, u'_ZNSt9basic_iosIcSt11char_traitsIcEE4initEPSt15basic_streambufIcS1_E': 50672, u'_ZNSt8_Rb_treeINSt7__cxx1112basic_stringIcSt11char_traitsIcESaIcEEESt4pairIKS5_PN3lul12UniqueStringEESt10_Select1stISB_ESt4lessIS5_ESaISB_EE29_M_get_insert_hint_unique_posESt23_Rb_tree_const_iteratorISB_ERS7_': 342432, u'_ZN7mozilla12baseprofiler23profiler_feature_activeEj': 201344, u'_ZN7mozilla17RandomUint64OrDieEv': 603648, u'got.open': 766328, u'XXH64_freeState': 567760, u'_ZN3lul14FindElfSegmentEPKvjPS1_PiS3_': 237024, u'_ZN7mozilla12baseprofiler27profiler_is_sampling_pausedEv': 199968, u'_ZN3lul16DwarfCFIToModule13RegisterNames3ARMEv': 227264, u'_ZN17double_conversionL19exact_powers_of_tenE': 694064, u'mmap': 51216, u'_ZN12RedBlackTreeI13arena_chunk_t20ArenaDirtyChunkTraitE11MoveRedLeftENS2_8TreeNodeE': 100752, u'_ZN7arena_t17RallocShrinkLargeEP13arena_chunk_tPvmm': 67040, u'_ZN13BaseAllocator7reallocEPvm': 91920, u'pow': 51184, u'_ZN7mozilla7SHA1Sum6finishERA20_h': 608224, u'_ZN7GAtomic4sNowE': 768256, u'_ZN7mozillaL12gInitializedE': 775048, u'read': 50832, u'_ZN7mozilla12baseprofiler24profiler_resume_samplingEv': 200736, u'_ZL15_malloc_preforkv': 90080, u'_ZN7mozilla12baseprofiler13SamplerThreadC2ERKNS0_10PSAutoLockEjdbb': 175360, u'_ZZN7mozilla7SHA1Sum6finishERA20_hE8bulk_pad': 691984, u'_ZN17double_conversion6Bignum9ShiftLeftEi': 622656, u'memmove': 51072, u'_Z24replace_moz_arena_mallocmm': 109568, u'_ZN7mozilla12baseprofiler54profiler_get_profile_json_into_lazily_allocated_bufferERKSt8functionIFPcmEEdb': 192064, u'got.strerror': 766152, u'got.fgets': 766888, u'_ZN3lul13CallFrameInfo8Reporter12RestoreInCIEEyy': 226544, u'_Z20logging_sink_for_LULPKc': 367344, u'_ZZN7mozilla20ProfileChunkedBuffer16ReserveAndPutRawIZNS0_13ReserveAndPutIZNS0_7PutFromEPKvjEUlvE_ZNS0_7PutFromES4_jEUlRNS_5MaybeINS_24ProfileBufferEntryWriterEEEE_EEDTclclsr3stdE7forwardIT0_Efp0_EclL_ZSt7declvalIS9_EDTcl9__declvalIT_ELi0EEEvEEEEOSD_OSB_EUlvE_ZNS2_IS5_SA_EESF_SG_SH_EUlS9_E_EEDaSG_SH_RNS_12baseprofiler6detail25BaseProfilerMaybeAutoLockEmENKUlvE_clEv': 244784, u'LZ4_compressHC_limitedOutput': 499088, u'_ZNK5blink7Decimal8toStringEPcm': 402288, u'got.__register_atfork': 766360, u'_ZN7mozilla12baseprofiler17UniqueJSONStrings13GetOrAddIndexERKNS_4SpanIKcLm18446744073709551615EEE': 144144, u'fgets': 51024, u'_ZN7mozilla12PrintfTarget5printEPKcz': 384928, u'_Z11mozToDoubleRKNSt7__cxx1112basic_stringIcSt11char_traitsIcESaIcEEEPb': 390048, u'_ZN7mozilla6VectorINS_9UniquePtrINS_12baseprofiler18ProfiledThreadDataENS_13DefaultDeleteIS3_EEEELm0ENS_17MallocAllocPolicyEE13growStorageByEm': 312816, u'_ZN7mozilla12baseprofiler17UniqueJSONStrings25SpliceStringTableElementsERNS0_20SpliceableJSONWriterE': 144112, u'exit': 50544, u'_ZL12sMallocTable': 768312, u'_Z26replace_moz_arena_memalignmmm': 111872, u'_ZN7mozilla12baseprofiler13SamplerThreadD1Ev': 175680, u'plt._ZNSo9_M_insertImEERSoT_': 49872, u'_Z25replace_moz_dispose_arenam': 109552, u'_ZN3lul20UniqueStringUniverseD2Ev': 213184, u'_ZN7mozilla12baseprofilerL26sProfilingCategoryPairInfoE': 762288, u'_ZN17double_conversion23DoubleToStringConverter19EcmaScriptConverterEv': 629136, u'_ZNK3lul13CallFrameInfo13SameValueRule6HandleEPNS0_7HandlerEyi': 315872, u'_ZN12RedBlackTreeI13extent_node_t17ExtentTreeSzTraitE12MoveRedRightENS2_8TreeNodeE': 76912, u'_ZN3lul6ModuleD1Ev': 213056, u'nanosleep': 49488, u'_ZN7mozilla20ProfileChunkedBufferD2Ev': 57440, u'_ZN7mozilla12baseprofiler20ChunkedJSONWriteFuncD0Ev': 245760, u'_ZN7mozilla12baseprofiler17UniqueJSONStringsD2Ev': 144000, u'_ZN5blink7DecimalC2ERKS0_': 392800, u'plt.close': 51392, u'_ZN7mozilla12baseprofilerL20locked_profiler_stopERKNS0_10PSAutoLockE': 189376, u'_ZNK7mozilla12baseprofiler12UniqueStacks8FrameKey15NormalFrameDataeqERKS3_': 137440, u'_ZL11malloc_initv': 88752, u'_ZN7mozilla12GetBootstrapEPKcNS_18LibLoadingStrategyE': 58208, u'_ZZ13logalloc_initE6bridge': 768056, u'_ZN7mozilla12PrintfTarget5cvt_fEdciii': 379872, u'_ZN7mozilla12baseprofiler8ActivePSD2Ev': 311120, u'XXH128_hashFromCanonical': 600272, u'_ZNK3lul13CallFrameInfo12RegisterRule6HandleEPNS0_7HandlerEyi': 316000, u'putenv': 50304, u'completed.8060': 767200, u'pthread_mutexattr_destroy': 49648, u'_ZN7mozilla6VectorINS_12baseprofiler22LiveProfiledThreadDataELm0ENS_17MallocAllocPolicyEE13growStorageByEm': 300608, u'pthread_cond_timedwait': 50960, u'_ZN7mozilla12baseprofiler15PageInformationC1EmmRKNSt7__cxx1112basic_stringIcSt11char_traitsIcESaIcEEEm': 131152, u'_ZN7mozilla12baseprofiler34profiler_suspend_and_sample_threadEijRNS0_22ProfilerStackCollectorEb': 210352, u'_ZSt18_Rb_tree_incrementPSt18_Rb_tree_node_base': 49888, u'_ZN7mozilla12baseprofiler11GetStackTopEPv': 174976, u'LZ4_versionString': 402608, u'got._ZTTSt14basic_ifstreamIcSt11char_traitsIcEE': 765936, u'__gmon_start__': 765920, u'_ZNSt13basic_filebufIcSt11char_traitsIcEEC1Ev': 50192, u'_ZN7mozilla12baseprofiler37profiler_stream_json_for_this_processERNS0_20SpliceableJSONWriterEdbb': 163744, u'_ZN7mozilla12baseprofiler12UniqueStacks24SpliceFrameTableElementsERNS0_20SpliceableJSONWriterE': 139840, u'got.__stack_chk_fail': 766560, u'data_start': 767096, u'_ZN7mozilla12PrintfTarget6cvt_llEliiiiiPKc': 379136, u'LZ4_slideInputBuffer': 485536, u'_ZTVN3lul16DwarfCFIToModule8ReporterE': 763456, u'_ZN3lul13CallFrameInfo7Handler24LanguageSpecificDataAreaEyb': 238912, u'_ZN7mozilla6detail9HashTableINS_12HashMapEntryINS_12baseprofiler12UniqueStacks8FrameKeyEjEENS_7HashMapIS5_jNS4_14FrameKeyHasherENS_17MallocAllocPolicyEE13MapHashPolicyES9_E3addIJRKS5_RjEEEbRNSC_6AddPtrEDpOT_': 319728, u'pthread_mutexattr_settype': 51264, u'pthread_cond_destroy': 51376, u'got.close': 767072, u'_ZN7arena_tnwEmRKSt9nothrow_t': 69216, u'moz_malloc_enclosing_size_of': 120336, u'plt.sysconf': 49856, u'_Z14SprintfLiteralILm256EEiRAT__cPKcz': 253440, u'LZ4_decompress_safe_forceExtDict': 462080, u'_ZL15gMallocTablePtr': 767976, u'_Z14SprintfLiteralILm40EEiRAT__cPKcz': 388896, u'_ZN7mozilla12baseprofiler8ActivePS24ClearExpiredExitProfilesERKNS0_10PSAutoLockE': 173888, u'_ZN9AllocatorI15MozJemallocBaseE17jemalloc_ptr_infoEPKvP19jemalloc_ptr_info_s': 66432, u'LZ4_compress_HC_continue': 497856, u'_ZN7mozilla12baseprofiler6detail12RacyFeatures11SetUnpausedEv': 161424, u'_ZN17double_conversionL7AdvanceIPKtEEbPT_tiRS3_': 656048, u'_ZN3lul3LUL14NotifyAfterMapEmmPKcPKv': 357568, u'_ZN7mozilla31ProfileBufferChunkManagerSingle8GetChunkEv': 240992, u'_ZN7mozilla12baseprofiler7markers10TextMarker14MarkerTypeNameEv': 335504, u'plt.sigemptyset': 50608, u'plt.__xpg_basename': 51152, u'_ZN7mozilla31ProcessUptimeExcludingSuspendMsEv': 389776, u'plt.nanosleep': 49488, u'plt.strcpy': 50096, u'_ZN7mozilla9HashBytesEPKvm': 603184, u'got.replace_init': 765904, u'LZ4_compressHC2_limitedOutput': 499376, u'MozFormatCodeAddressDetails': 385680, u'_ZN3lul13CallFrameInfo5StartEv': 223840, u'_ZN3lul6SecMap15PrepareRuleSetsEmm': 354528, u'_ZN7mozilla20ProfileChunkedBuffer17ResetChunkManagerERKNS_12baseprofiler6detail25BaseProfilerMaybeAutoLockE': 57792, u'__realloc_hook': 767136, u'got._ITM_registerTMCloneTable': 765928, u'_ZN7mozilla8SmprintfINS_17MallocAllocPolicyEEENS_9UniquePtrIcNS_6detail26AllocPolicyBasedFreePolicyIT_EEEEPKcz': 194336, u'_ZN7mozilla12baseprofiler7SamplerC2ERKNS0_10PSAutoLockE': 175024, u'got.fputc': 766672, u'XXH3_128bits': 584240, u'_ZNSt5dequeIN3lul13CallFrameInfo7RuleMapESaIS2_EED2Ev': 317024, u'_ZN7mozilla12baseprofiler20ChunkedJSONWriteFuncD2Ev': 245616, u'_ZN7mozilla17AutoProfilerLabelC1EPKcS2_': 373552, u'_ZN7mozilla39ProfileBufferChunkManagerWithLocalLimit20FulfillChunkRequestsEv': 297824, u'_ZN7mozilla16ProfilerLabelEndERKNS_5TupleIJPvjEEE': 373456, u'_ZN7arena_t10PallocHugeEmmb': 65840, u'_ZN7arena_t18RallocSmallOrLargeEPvmm': 67424, u'_ZNK7mozilla31ProfileBufferChunkManagerSingle19SizeOfIncludingThisEPFmPKvE': 241520, u'_ZNSt6vectorIhSaIhEE15_M_range_insertIPKhEEvN9__gnu_cxx17__normal_iteratorIPhS1_EET_S9_St20forward_iterator_tag': 128960, u'_ZNKSt5ctypeIcE13_M_widen_initEv': 50432, u'__fxstat': 50272, u'_ZN21AutoObjectMapperPOSIXC2EPFvPKcE': 211504, u'_ZN3lulL8DerefTUWENS_11TaggedUWordEPKNS_10StackImageE': 362192, u'_ZNSt5dequeIN3lul13CallFrameInfo7RuleMapESaIS2_EE15_M_pop_back_auxEv': 344912, u'_ZTTNSt7__cxx1119basic_ostringstreamIcSt11char_traitsIcESaIcEEE': 765864, u'_ZN7mozilla20ProfileChunkedBuffer16ReserveAndPutRawIZNS0_13ReserveAndPutIZNS0_10PutObjectsIJNS_22ProfileBufferEntryKindENS_13MarkerOptionsENS_18ProfilerStringViewIcEENS_14MarkerCategoryEhS7_EEENS_23ProfileBufferBlockIndexEDpRKT_EUlvE_ZNS3_IJS4_S5_S7_S8_hS7_EEES9_SD_EUlRNS_5MaybeINS_24ProfileBufferEntryWriterEEEE_EEDTclclsr3stdE7forwardIT0_Efp0_EclL_ZSt7declvalISI_EDTcl9__declvalIT_ELi0EEEvEEEEOSM_OSK_EUlvE_ZNS2_ISE_SJ_EESO_SP_SQ_EUlSI_E_EEDaSP_SQ_RNS_12baseprofiler6detail25BaseProfilerMaybeAutoLockEm': 338448, u'got._ZNSt13basic_filebufIcSt11char_traitsIcEEC1Ev': 766472, u'LZ4_attach_dictionary': 427184, u'plt.pthread_mutexattr_destroy': 49648, u'_ZNSt8_Rb_treeINSt7__cxx1112basic_stringIcSt11char_traitsIcESaIcEEES5_St9_IdentityIS5_ESt4lessIS5_ESaIS5_EE10_M_insert_IRKS5_NSB_11_Alloc_nodeEEESt17_Rb_tree_iteratorIS5_EPSt18_Rb_tree_node_baseSJ_OT_RT0_': 348688, u'got.log10': 766232, u'_ZN7mozilla12baseprofiler7markers10TextMarker17MarkerTypeDisplayEv': 335536, u'_ZN7mozilla12baseprofiler25profiler_set_process_nameERKNSt7__cxx1112basic_stringIcSt11char_traitsIcESaIcEEEPS7_': 189888, u'_ZN7mozilla6detail17FileHandleDeleterclENS0_16FileHandleHelperE': 608400, u'LZ4F_compressBegin_usingCDict': 486608, u'_ZN7mozilla12baseprofiler9AddMarkerINS0_7markers10TextMarkerEJNSt7__cxx1112basic_stringIcSt11char_traitsIcESaIcEEEEEENS_23ProfileBufferBlockIndexERKNS_18ProfilerStringViewIcEERKNS_14MarkerCategoryEONS_13MarkerOptionsET_DpRKT0_': 156480, u'_ZN6FileID18FindElfBuildIDNoteEPKvRSt6vectorIhSaIhEE': 127184, u'_ZZN7mozilla24ProfileBufferEntryWriter10SerializerINS_20ProfileChunkedBufferEE5WriteERS0_RKS2_ENKUlPNS2_6ReaderEE_clES8_': 333968, u'_Z14SprintfLiteralILm300EEiRAT__cPKcz': 225344, u'_ZN7mozilla12baseprofiler28ParseFeaturesFromStringArrayEPPKcjb': 175776, u'_ZN3lul7TestFn1EPNS_3LULEPKcS3_': 363808, u'plt.readahead': 49280, u'_ZN7mozilla12baseprofiler16RegisteredThreadD1Ev': 160784, u'_ZN19ReplaceMallocBridge11InitDebugFdERN7mozilla15DebugFdRegistryE': 116448, u'_ZN3lul16DwarfCFIToModule12RegisterNameEi': 228784, u'_ZN7mozilla12baseprofiler6detail12RacyFeatures9SetActiveEj': 161328, u'stderr': 765872, u'plt.pthread_condattr_init': 49312, u'_ZN12_GLOBAL__N_111LoadSymbolsIN3lul10ElfClass32EEEbRKNSt7__cxx1112basic_stringIcSt11char_traitsIcESaIcEEEbPKNT_4EhdrEbPNS_15LoadSymbolsInfoISB_EEPNS1_6SecMapEPvmPNS1_20UniqueStringUniverseEPFvPKcE': 345520, u'_ZL8huge_mtx': 767280, u'_ZN7mozilla12baseprofilerL24WriteProfileToJSONWriterERNS0_27SpliceableChunkedJSONWriterEdbb': 190736, u'_ZSt13__adjust_heapIN9__gnu_cxx17__normal_iteratorIP13SharedLibrarySt6vectorIS2_SaIS2_EEEElS2_NS0_5__ops15_Iter_comp_iterIPFbRKS2_SB_EEEEvT_T0_SG_T1_T2_': 274720, u'_ZN7mozilla11Compression26LZ4FrameCompressionContext14EndCompressingEv': 602672, u'_ZNKSt7__cxx1112basic_stringIcSt11char_traitsIcESaIcEE7compareEmmRKS4_': 50640, u'_ZN7arena_t15RallocGrowLargeEP13arena_chunk_tPvmm': 67200, u'_ZN9__gnu_cxx12__to_xstringINSt7__cxx1112basic_stringIcSt11char_traitsIcESaIcEEEcEET_PFiPT0_mPKS8_P13__va_list_tagEmSB_z': 303536, u'_ZN12RedBlackTreeI17arena_chunk_map_t19ArenaAvailTreeTraitE6RemoveENS2_8TreeNodeE': 96512, u'_ZN19ReplaceMallocBridge27IsPHCEnabledOnCurrentThreadEv': 108848, u'LZ4F_compressBlockHC': 495600, u'_ZL20gReplaceMallocBridge': 767520, u'_Z6_dummyv': 59456, u'_ZSt7getlineIcSt11char_traitsIcESaIcEERSt13basic_istreamIT_T0_ES7_RNSt7__cxx1112basic_stringIS4_S5_T1_EES4_': 51328, u'_ZdaPv': 119536, u'plt.__stack_chk_fail': 50368, u'LZ4F_decodeHeader': 494384, u'plt.log10': 49712, u'_ZN3lul15EvaluatePfxExprEiPKNS_10UnwindRegsENS_11TaggedUWordEPKNS_10StackImageERKSt6vectorINS_8PfxInstrESaIS8_EE': 360656, u'_ZN3lul6PriMap20RemoveSecMapsInRangeEmm': 360160, u'_ZN7arena_tC2EP14arena_params_sb': 69376, u'_Z24replace_moz_arena_callocmmm': 109680, u'_ZN17double_conversion6Bignum17AssignPowerUInt16Eti': 625232, u'plt.fflush': 50480, u'_ZNK7mozilla12baseprofiler18ProfileBufferEntry8GetInt64Ev': 135744, u'_ZNSt6vectorIN7mozilla7VariantIJNS0_12MarkerSchema11DynamicDataENS2_10StaticDataEEEESaIS5_EE17_M_realloc_insertIJNS0_11VariantTypeIS3_EES3_EEEvN9__gnu_cxx17__normal_iteratorIPS5_S7_EEDpOT_': 336960, u'__cxa_atexit': 50016, u'_ZN7mozilla12PrintfTarget5cvt_sEPKciii': 380448, u'LZ4_compress_limitedOutput': 484912, u'plt._ZNSt7__cxx1112basic_stringIcSt11char_traitsIcESaIcEE9_M_appendEPKcm': 49504, u'_ZN3lul10Summariser11AddPfxInstrENS_8PfxInstrE': 232016, u'_ZN7mozilla12baseprofiler18ProfiledThreadDataD1Ev': 144960, u'_ZL11base_mapped': 767832, u'_ZN7mozilla11Compression26LZ4FrameCompressionContextD1Ev': 602208, u'_start': 52640, u'XXH3_createState': 577424, u'plt.strtol': 50768, u'got._ZSt18_Rb_tree_incrementPKSt18_Rb_tree_node_base': 766600, u'_ZZN7mozilla12baseprofiler7LogTestEiE8maxLevel': 774544, u'_ZZN7mozilla28base_profiler_markers_detailL34AddMarkerWithOptionalStackToBufferINS_12baseprofiler7markers9NoPayloadEJEEENS_23ProfileBufferBlockIndexERNS_20ProfileChunkedBufferERKNS_18ProfilerStringViewIcEERKNS_14MarkerCategoryEONS_13MarkerOptionsEDpRKT0_EN17NoPayloadUserData14MarkerTypeNameEv': 331056, u'_ZnwmRKSt9nothrow_t': 119456, u'LZ4_decompress_fast_usingDict': 484864, u'_ZN3lul13CallFrameInfo8Reporter17EarlyEHTerminatorEy': 225616, u'_ZN7mozilla12baseprofiler12UniqueStacksC1Ev': 137632, u'plt._ZNKSt12__basic_fileIcE7is_openEv': 49376, u'_ZNK7mozilla12baseprofiler16RegisteredThread19SizeOfIncludingThisEPFmPKvE': 160928, u'_ZN7mozilla12baseprofiler8ActivePS21AddLiveProfiledThreadERKNS0_10PSAutoLockEPNS0_16RegisteredThreadEONS_9UniquePtrINS0_18ProfiledThreadDataENS_13DefaultDeleteIS8_EEEE': 299600, u'_ZNK3lul13CallFrameInfo7RuleMap12RegisterRuleEi': 216080, u'plt._ZNSt6localeC1Ev': 51424, u'_ZN7mozilla6detail14InChunkPointer11EntryReaderEj': 254000, u'strlen': 49632, u'LZ4_compress_default': 421904, u'_ZN7mozilla9TimeStamp18SetFuzzyfoxEnabledEb': 387296, u'plt._ZNSt7__cxx1112basic_stringIcSt11char_traitsIcESaIcEE9_M_mutateEmmPKcm': 51248, u'_ZN7mozilla6detail9HashTableINS_12HashMapEntryINS_12baseprofiler12UniqueStacks8StackKeyEjEENS_7HashMapIS5_jNS4_14StackKeyHasherENS_17MallocAllocPolicyEE13MapHashPolicyES9_E3addIJRKS5_RjEEEbRNSC_6AddPtrEDpOT_': 317984, u'_ZN7mozilla10JSONWriter19scObjectBeginStringE': 763712, u'plt.setenv': 50944, u'_ZN14LogAllocBridge11InitDebugFdERN7mozilla15DebugFdRegistryE': 108736, u'_ZL11huge_mapped': 767336, u'__cxa_finalize': 51440, u'_ZN12_GLOBAL__N_115ElfArchitectureIN3lul10ElfClass64EEEPKcPKNT_4EhdrE': 349600, u'got.__cxa_guard_acquire': 767016, u'_ZN7mozilla12baseprofiler26profiler_capture_backtraceEv': 208688, u'got._ZTVSt14basic_ofstreamIcSt11char_traitsIcEE': 765888, u'_ZNK3lul13CallFrameInfo13ValOffsetRule6HandleEPNS0_7HandlerEyi': 316816, u'_ZNK17double_conversion6Bignum11BigitOrZeroEi': 628384, u'plt._ZNSt13basic_filebufIcSt11char_traitsIcEE4openEPKcSt13_Ios_Openmode': 50048, u'_ZN3lul10SummariserC2EPNS_6SecMapEmPFvPKcE': 230576, u'_ZN3lul13CallFrameInfo8Reporter24UnrecognizedAugmentationEyRKNSt7__cxx1112basic_stringIcSt11char_traitsIcESaIcEEE': 226064, u'_ZN7mozilla6VectorIPNS_12baseprofiler17BaseProfilerCountELm0ENS_17MallocAllocPolicyEE13growStorageByEm': 311952, u'_ZN7mozilla14StringToDoubleENS_4SpanIKcLm18446744073709551615EEE': 402432, u'_ZN7mozilla20ProfileChunkedBuffer28SetAndInitializeCurrentChunkEONS_9UniquePtrINS_18ProfileBufferChunkENS_13DefaultDeleteIS2_EEEERKNS_12baseprofiler6detail25BaseProfilerMaybeAutoLockE': 243248, u'_ZN7mozilla12PrintfTarget5fill2EPKciii': 377136, u'_ZN7mozilla12baseprofiler16RegisteredThreadC1EPNS0_10ThreadInfoEPv': 160640, u'readahead': 49280, u'_ZN7mozilla6detail9HashTableINS_12HashMapEntryImNS_6VectorINS_12baseprofiler18CounterKeyedSampleELm0ENS_17MallocAllocPolicyEEEEENS_7HashMapImS7_NS_13DefaultHasherImvEES6_E13MapHashPolicyES6_E3addIJRmS7_EEEbRNSE_6AddPtrEDpOT_': 268752, u'_ZN16AddressRadixTreeILm44EE4InitEv': 89936, u'XXH32': 565840, u'_ZN7mozilla24ProfileBufferEntryWriter10SerializerINS_18ProfilerStringViewIcEEE5WriteERS0_RKS3_': 334176, u'getpid': 50864, u'phc_init': 112064, u'_ZNK7mozilla17AwakeTimeDuration14ToMillisecondsEv': 373792, u'XXH3_copyState': 577536, u'_ZN7mozilla12baseprofilerL14AddPausedRangeERNS0_20SpliceableJSONWriterEPKcRKNS_5MaybeIdEES8_': 270976, u'_ZN16AddressRadixTreeILm44EE3GetEPv': 81184, u'_ZN7arena_t10RallocHugeEPvmm': 68368, u'XXH_versionNumber': 565824, u'plt._ZNSt7__cxx1112basic_stringIcSt11char_traitsIcESaIcEE9_M_createERmm': 51232, u'_ZN7mozilla39ProfileBufferChunkManagerWithLocalLimit12ReleaseChunkENS_9UniquePtrINS_18ProfileBufferChunkENS_13DefaultDeleteIS2_EEEE': 307696, u'_ZN3lul13CallFrameInfo13SameValueRuleD0Ev': 315856, u'_ZNK17double_conversion6Bignum11ToHexStringEPci': 627888, u'_ZSt11__make_heapIN9__gnu_cxx17__normal_iteratorIPN3lul7RuleSetESt6vectorIS3_SaIS3_EEEENS0_5__ops15_Iter_comp_iterIPFbRKS3_SC_EEEEvT_SG_RT0_': 372464, u'XXH3_128bits_withSecret': 586864, u'_ZL3sFd': 768008, u'got.memset': 766264, u'_ZL18sPrevSIGBUSHandler': 774824, u'_ZNK3lul10ByteReader14UsableEncodingENS_20DwarfPointerEncodingE': 214560, u'_ZN12RedBlackTreeI13extent_node_t15ExtentTreeTraitE6InsertENS2_8TreeNodeE': 95696, u'_ZTVN3lul13CallFrameInfo12RegisterRuleE': 764576, u'_ZSt18_Rb_tree_incrementPKSt18_Rb_tree_node_base': 50448, u'_ZN3lul13CallFrameInfo8Reporter10IncompleteEyNS0_9EntryKindE': 225200, u'_ZN7mozilla12PrintfTarget12appendIntHexEj': 378768, u'_ZN5blink14DecimalPrivate7UInt128dVEj': 391968, u'plt.bcmp': 50208, u'_ZN7mozilla12PrintfTarget12appendIntHexEm': 379712, u'_ZN17double_conversionL17kSmallPowersOfTenE': 694016, u'_ZN3lul19IsEmptyUniqueStringEPKNS_12UniqueStringE': 213168, u'got.pthread_mutex_init': 766832, u'_ZN7mozilla11sse_private11avx_enabledE': 767229, u'_ZN9AllocatorI15MozJemallocBaseE27jemalloc_thread_local_arenaEb': 86816, u'strrchr': 50336, u'_ZN7mozilla12baseprofiler8ActivePS14AddExitProfileERKNS0_10PSAutoLockERKNSt7__cxx1112basic_stringIcSt11char_traitsIcESaIcEEE': 194928, u'_ZN3lul13CallFrameInfo8Reporter15ClearingCFARuleEyNS0_9EntryKindEy': 227088, u'_ZN15MmapAccessScopeD2Ev': 376112, u'_ZSt9remove_ifIPN7mozilla12baseprofiler8ActivePS11ExitProfileEZNS0_6VectorIS3_Lm0ENS0_17MallocAllocPolicyEE7eraseIfIZNS2_24ClearExpiredExitProfilesERKNS1_10PSAutoLockEEUlRKS3_E_EEvT_EUlSD_E_ESF_SF_SF_T0_': 294448, u'_ZN3lul7TestFn5EPNS_3LULEPKcS3_': 365280, u'_ZN3lul7TestFn7EPNS_3LULEPKcS3_': 365648, u'_ZN7mozilla6detail21ConditionVariableImplC1Ev': 374112, u'plt._ZSt18_Rb_tree_decrementPSt18_Rb_tree_node_base': 50240, u'got.__strcat_chk': 766456, u'_ZN7mozilla12baseprofiler13SamplerThread4StopERKNS0_10PSAutoLockE': 175712, u'_ZN7mozilla12baseprofiler29profiler_save_profile_to_fileEPKc': 196304, u'got.perror': 766376, u'_ZN7mozilla7SHA1Sum6updateEPKvj': 603872, u'LZ4_compress_withState': 485248, u'_ZN7mozilla9ReadAheadEimm': 56016, u'_ZN7mozilla11sse_private14sse4_1_enabledE': 767227, u'_ZSt16__insertion_sortIPSt4pairIPN7mozilla12baseprofiler16RegisteredThreadEPNS2_18ProfiledThreadDataEEN9__gnu_cxx5__ops15_Iter_comp_iterIZNS2_8ActivePS15ProfiledThreadsERKNS2_10PSAutoLockEEUlRKS7_SH_E_EEEvT_SK_T0_': 293904, u'__libc_start_main': 765912, u'_Z8FdPrintflPKcz': 105328, u'_ZN7mozilla12baseprofiler6detail12RacyFeatures19IsActiveWithFeatureEj': 161520, u'_ZN3lul13CallFrameInfo5State8DoOffsetEjl': 220000, u'usleep': 50800, u'_ZN15ArenaCollection12DisposeArenaEP7arena_t': 92624, u'XXH3_64bits_reset_withSecret': 577680, u'_ZN3lul7TestFn8EPNS_3LULEPKcS3_': 365824, u'_ZN7arena_t11TrimRunTailEP13arena_chunk_tP11arena_run_tmmb': 64736, u'_ZNK17double_conversion23StringToDoubleConverter12StringToIeeeIPKcEEdT_ibPi': 640320, u'_ZN7mozilla18ProfileBufferChunkD2Ev': 241712, u'LZ4_initStreamHC': 496544, u'_ZN10StackTrace4FillEv': 108864, u'_ZNK3lul7RuleSet5PrintEPFvPKcE': 353040, u'_ZN3lul13CallFrameInfo5State12InterpretFDEERKNS0_3FDEE': 218688, u'_ZN7mozilla9UniquePtrINS_12baseprofiler13ProfileBufferENS_13DefaultDeleteIS2_EEED2Ev': 152336, u'_ZN3lul13CallFrameInfo17ValExpressionRuleC2ERKNSt7__cxx1112basic_stringIcSt11char_traitsIcESaIcEEE': 220688, u'_ZN3lul7RuleSetC1Ev': 353984, u'_ZN17double_conversionL12isWhitespaceEi': 655696, u'_ZN3lul3LULC1EPFvPKcE': 356480, u'_ZNSt5dequeIN3lul13CallFrameInfo7RuleMapESaIS2_EE17_M_reallocate_mapEmb': 344384, u'__isoc99_sscanf': 50144, u'_ZN7mozilla12PrintfTargetD2Ev': 55920, u'_ZN3lul3LULC2EPFvPKcE': 356480, u'__free_hook': 767120, u'_ZN7mozilla12baseprofiler17ProfilerBacktrace10StreamJSONERNS0_20SpliceableJSONWriterERKNS_9TimeStampERNS0_12UniqueStacksE': 152480, u'_ZL16CompareAddressesRK13SharedLibraryS1_': 273152, u'vsnprintf': 765832, u'got._ZNKSt7__cxx1112basic_stringIcSt11char_traitsIcESaIcEE7compareEmmRKS4_': 766696, u'plt.mmap': 51216, u'_ZL18malloc_initialized.0.0': 768000, u'gSIGBUSHandlerInstalling': 774816, u'_ZN7mozilla12MarkerSchema20LocationToStringSpanENS0_8LocationE': 156096, u'LZ4_compress_HC_extStateHC_fastReset': 495840, u'plt.strtoul': 49520, u'_ZN6FileID18HashElfTextSectionEPKvRSt6vectorIhSaIhEE': 128464, u'_ZN7mozilla6detail9MutexImpl4lockEv': 376976, u'_ZN7mozilla12baseprofiler6detail12RacyFeatures18sActiveAndFeaturesE': 774644, u'_ZN7mozilla12baseprofiler8categoryL15OTHER_ProfilingE': 684844, u'_ZN7mozilla10JSONWriter14DoublePropertyERKNS_4SpanIKcLm18446744073709551615EEEd': 248672, u'inc32table': 689840, u'_ZN7mozilla31ProfileBufferChunkManagerSingle12ReleaseChunkENS_9UniquePtrINS_18ProfileBufferChunkENS_13DefaultDeleteIS2_EEEE': 241184, u'_ZN7arena_t11DallocSmallEP13arena_chunk_tPvP17arena_chunk_map_t': 82160, u'_ZN3lul13CallFrameInfo14ExpressionRuleD0Ev': 316192, u'_ZNK7mozilla6detail14InChunkPointer23ShouldPointAtValidBlockEv': 255120, u'_ZN15ArenaCollection11CreateArenaEbP14arena_params_s': 70480, u'_GLOBAL__sub_I_TimeStamp.cpp': 52448, u'_ZSt10__pop_heapIN9__gnu_cxx17__normal_iteratorIP13SharedLibrarySt6vectorIS2_SaIS2_EEEENS0_5__ops15_Iter_comp_iterIPFbRKS2_SB_EEEEvT_SF_SF_RT0_': 274224, u'_ZN17double_conversion16PowersOfTenCache32GetCachedPowerForDecimalExponentEiPNS_5DiyFpEPi': 629072, u'XXH128_cmp': 600208, u'_ZN7mozilla12baseprofiler22ProfileBufferCollector26CollectProfilingStackFrameERKNS0_19ProfilingStackFrameE': 135328, u'XXH3_128bits_reset': 593824, u'_ZN7mozilla16InitializeUptimeEv': 389376, u'got._ITM_deregisterTMCloneTable': 765896, u'_ZN3lul6PriMap9AddSecMapEON7mozilla9UniquePtrINS_6SecMapENS1_13DefaultDeleteIS3_EEEE': 358832, u'LZ4_compressHC2_limitedOutput_continue': 500784, u'got.pthread_cond_init': 766640, u'_ZNKSt7__cxx1112basic_stringIcSt11char_traitsIcESaIcEE5rfindEcm': 51408, u'_ZL8sAppData': 761776, u'_ZNK3lul13CallFrameInfo13UndefinedRule6HandleEPNS0_7HandlerEyi': 315744, u'fputc': 50592, u'_ZTVN7mozilla31ProfileBufferChunkManagerSingleE': 763760, u'XXH3_freeState': 577504, u'LZ4F_createCDict': 489600, u'fputs': 50384, u'_ZN7mozilla12baseprofiler11EntryGetterC2ERNS_20ProfileChunkedBuffer6ReaderEm': 252752, u'_ZNK5blink7Decimal8toStringB5cxx11Ev': 400544, u'plt.read': 50832, u'_ZN7mozilla12baseprofiler12UniqueStacks18GetOrAddFrameIndexERKNS1_8FrameKeyE': 135856, u'_ZN3lul16DwarfCFIToModule13RegisterNames4MIPSEv': 227296, u'_ZN7mozilla9UniquePtrINS_18ProfileBufferChunkENS_13DefaultDeleteIS1_EEEaSEOS4_': 241648, u'plt.__isoc99_sscanf': 50144, u'_ZN7mozilla6detail14InChunkPointer13ReadEntrySizeEv': 254736, u'_ZN16AlignedAllocatorIXadL_ZN9AllocatorI17ReplaceMallocBaseE8memalignEmmEEE14posix_memalignEPPvmm': 94896, u'_ZN7mozilla12baseprofilerL14SigprofHandlerEiP9siginfo_tPv': 175200, u'_ZN3lul13CallFrameInfo12RegisterRuleD0Ev': 315984, u'_Z36replace_moz_create_arena_with_paramsP14arena_params_s': 109536, u'plt.pthread_cond_wait': 50992, u'plt.exit': 50544, u'_ZN6FileID19FindElfClassSectionINS_10ElfClass64EEEbPKcS3_NT_4WordEPPKvPm': 129920, u'got.__errno_location': 766000, u'_ZN12RedBlackTreeI13arena_chunk_t20ArenaDirtyChunkTraitE12MoveRedRightENS2_8TreeNodeE': 101072, u'_ZN3lul13CallFrameInfo8Reporter9NoCFARuleEyNS0_9EntryKindEy': 226800, u'__stack_chk_fail': 50368, u'_ZN7mozilla20ProfileChunkedBuffer15SetChunkManagerERNS_25ProfileBufferChunkManagerERKNS_12baseprofiler6detail25BaseProfilerMaybeAutoLockE': 271728, u'pthread_cond_wait': 50992, u'got.__cxa_guard_release': 766296, u'plt._ZNSt6localeD1Ev': 50784, u'_ZN7mozilla10JSONWriter12QuotedScalarERKNS_4SpanIKcLm18446744073709551615EEES5_': 270032, u'_ZNK7mozilla39ProfileBufferChunkManagerWithLocalLimit19SizeOfIncludingThisEPFmPKvE': 308976, u'LZ4F_getErrorName': 485568, u'_ZN7mozilla12baseprofiler17AddMarkerToBufferINS0_7markers10TextMarkerEJNSt7__cxx1112basic_stringIcSt11char_traitsIcESaIcEEEEEENS_23ProfileBufferBlockIndexERNS_20ProfileChunkedBufferERKNS_18ProfilerStringViewIcEERKNS_14MarkerCategoryEONS_13MarkerOptionsET_DpRKT0_': 156832, u'_ZN7mozilla6VectorImLm0ENS_17MallocAllocPolicyEE13growStorageByEm': 245920, u'_ZN7GAtomic11sAllocDelayE': 768264, u'_ZN3lul13CallFrameInfo8ReporterC2EPFvPKcERKNSt7__cxx1112basic_stringIcSt11char_traitsIcESaIcEEESD_': 349312, u'got._ZNSo9_M_insertImEERSoT_': 766312, u'_ZN7mozilla24ProfileBufferEntryReader12DeserializerINS_11MarkerStackEE4ReadERS0_': 324976, u'close': 51392, u'plt._ZNSt9basic_iosIcSt11char_traitsIcEE4initEPSt15basic_streambufIcS1_E': 50672, u'_ZN7mozilla39ProfileBufferChunkManagerWithLocalLimitD2Ev': 306800, u'_ZN7mozilla6detail10VectorImplINS_12baseprofiler22LiveProfiledThreadDataELm0ENS_17MallocAllocPolicyELb0EE6growToERNS_6VectorIS3_Lm0ES4_EEm': 301088, u'plt.pthread_cond_broadcast': 49568, u'_ZN3lul13CallFrameInfo8Reporter14BadInstructionEyNS0_9EntryKindEy': 226656, u'_ZN7mozilla9TimeStamp20UpdateFuzzyTimeStampES0_': 387696, u'_ZN7mozilla12baseprofiler6CorePS9sInstanceE': 774624, u'_ZN7mozilla6VectorINS_9UniquePtrINS_12baseprofiler18ProfiledThreadDataENS_13DefaultDeleteIS3_EEEELm0ENS_17MallocAllocPolicyEE7eraseIfIZNS2_8ActivePS33DiscardExpiredDeadProfiledThreadsERKNS2_10PSAutoLockEEUlRKS6_E_EEvT_': 291264, u'_ZN7mozilla12baseprofilerL13SplitAtCommasEPKcRNS_9UniquePtrIA_cNS_13DefaultDeleteIS4_EEEE': 181184, u'_ZNK3lul13CallFrameInfo10OffsetRule4CopyEv': 316720, u'_ZN7mozilla24ProfileBufferEntryWriterppEv': 244032, u'_ZNK3lul13CallFrameInfo13ValOffsetRuleeqERKNS0_4RuleE': 316864, u'_ZN15MmapAccessScopeC2EPvjPKc': 375616, u'_ZTVSt13basic_filebufIcSt11char_traitsIcEE': 765880, u'moz_xstrdup': 119952, u'memalign': 72352, u'got.__cxa_pure_virtual': 765056, u'plt.dl_iterate_phdr': 49456, u'_ZN7mozilla6detail21ConditionVariableImplC2Ev': 374112, u'_ZN7mozilla20ProfileChunkedBuffer5ClearEv': 174208, u'_ZN17double_conversion6Bignum5AlignERKS0_': 621392, u'got.__cxa_finalize': 765824, u'_ZN7mozilla12baseprofiler21profiler_thread_sleepEv': 208272, u'_Znam': 119472, u'_ZNSt7__cxx1112basic_stringIcSt11char_traitsIcESaIcEE9_M_createERmm': 51232, u'got.pthread_mutex_destroy': 766608, u'_ZN7mozilla12baseprofiler6detail12RacyFeatures8IsActiveEv': 161376, u'_ZN7mozilla12baseprofiler14ProfilingStack18ensureCapacitySlowEv': 51456, u'_ZNK7mozilla20ProfileChunkedBuffer4ReadIZNS_24ProfileBufferEntryWriter10SerializerIS0_E5WriteERS2_RKS0_EUlPNS0_6ReaderEE_EEDaOT_': 333760, u'_ZN12RedBlackTreeI13extent_node_t15ExtentTreeTraitE11MoveRedLeftENS2_8TreeNodeE': 79424, u'_ZN3lul16DwarfCFIToModule10OffsetRuleEyiil': 229536, u'__do_global_dtors_aux': 52800, u'plt.syscall': 49264, u'_ZN7mozilla12baseprofiler18ProfileBufferEntryC2Ev': 135536, u'_ZN3lul13CallFrameInfo13UndefinedRuleD0Ev': 315728, u'_ZTVSt9basic_iosIcSt11char_traitsIcEE': 765816, u'_ZN9AllocatorI15MozJemallocBaseE23jemalloc_stats_internalEP16jemalloc_stats_tP20jemalloc_bin_stats_t': 84992, u'_ZN3lul10Summariser4RuleEmiNS_8LExprHowEsl': 230688, u'_ZN3lul10ByteReaderD0Ev': 214000, u'_ZN3lul7TestFn4EPNS_3LULEPKcS3_': 365104, u'jemalloc_replace_dynamic': 71024, u'_ZN7mozilla12baseprofiler6detail12RacyFeatures19IsActiveAndUnpausedEv': 161552, u'_ZL22replace_posix_memalignPPvmm': 108224, u'_ZN7mozilla12baseprofiler12UniqueStacksC2Ev': 137632, u'LZ4F_updateDict': 494944, u'_ZN3lul7TestFn3EPNS_3LULEPKcS3_': 364912, u'plt._ZNSo9_M_insertIlEERSoT_': 50112, u'_ZL8postforkv': 108688, u'plt.memcmp': 49664, u'_ZL13chunk_deallocPvm9ChunkType': 60544, u'_ZL13gRecycledSize': 767840, u'_ZN7mozilla12PrintfTarget12appendIntDecEj': 378416, u'_ZN7mozilla10JSONWriter21scPropertyBeginStringE': 763680, u'_ZN3lul6SecMapD1Ev': 354112, u'_ZdaPvRKSt9nothrow_t': 119552, u'_ZNK17double_conversion23DoubleToStringConverter11ToPrecisionEdiPNS_13StringBuilderE': 632816, u'_ZN7mozilla6VectorINS_12baseprofiler22LiveProfiledThreadDataELm0ENS_17MallocAllocPolicyEE5eraseEPS2_': 312560, u'_ZN7arena_t6PallocEmm': 65472, u'_ZNK3lul10ByteReader18ReadEncodedPointerEPKcNS_20DwarfPointerEncodingEPm': 214624, u'malloc': 72096, u'_ZN12RedBlackTreeI7arena_t14ArenaTreeTraitE12MoveRedRightENS2_8TreeNodeE': 94352, u'_ZN7mozilla12baseprofiler17UniqueJSONStringsC2ERKS1_NS_10JSONWriter15CollectionStyleE': 142704, u'_ZN3lul13CallFrameInfo17ValExpressionRuleD2Ev': 315248, u'plt.time': 50080, u'_ZN7mozilla12baseprofiler17ProfilerBacktraceC2EPKcPNS_20ProfileChunkedBufferEPNS0_13ProfileBufferE': 151952, u'_ZNK7mozilla4SpanIKhLm18446744073709551615EE4FromEm': 255472, u'_ZN7mozilla6detail14InChunkPointer28AdvanceToGlobalRangePositionENS_23ProfileBufferBlockIndexE': 254960, u'_ZNSt8_Rb_treeIiSt4pairIKiPN3lul13CallFrameInfo4RuleEESt10_Select1stIS6_ESt4lessIiESaIS6_EE29_M_get_insert_hint_unique_posESt23_Rb_tree_const_iteratorIS6_ERS1_': 343328, u'plt.strcasecmp': 50320, u'_ZL14base_next_addr': 767792, u'_ZL12arena_dallocPvmP7arena_t': 81504, u'gOOMAllocationSize': 768528, u'_ZN7mozilla20ProfileChunkedBuffer16ReserveAndPutRawIZNS0_16ReserveAndPutRawIZNS_24ProfileBufferEntryReader12DeserializerIS0_E8ReadIntoERS3_RS0_EUlRNS_5MaybeINS_24ProfileBufferEntryWriterEEEE_EEDajOT_mEUlvE_SC_EEDaSE_OT0_RNS_12baseprofiler6detail25BaseProfilerMaybeAutoLockEm': 326736, u'plt.fprintf': 50816, u'_ZN12RedBlackTreeI7arena_t14ArenaTreeTraitE6RemoveENS2_8TreeNodeE': 92832, u'_ZN7mozilla24ProfileBufferEntryReader12DeserializerINS_9UniquePtrINS_20ProfileChunkedBufferENS_13DefaultDeleteIS3_EEEEE4ReadERS0_': 325216, u'_ZN3lul13CallFrameInfo8ReporterD0Ev': 238624, u'LZ4_sizeofStreamStateHC': 500304, u'_Z23InstallMmapFaultHandlerv': 375200, u'_ZN7mozilla10JSONWriter18scArrayBeginStringE': 763976, u'_ZN7mozilla6detail21ConditionVariableImpl4waitERNS0_9MutexImplE': 374528, u'_ZNSt6localeC1Ev': 51424, u'_ZNK3lul13CallFrameInfo10OffsetRule6HandleEPNS0_7HandlerEyi': 316608, u'XXH64_finalize': 568720, u'plt.fopen': 50496, u'_ZTV9PHCBridge': 762208, u'LZ4_createStream': 426720, u'moz_xcalloc': 119840, u'fflush': 50480, u'_ZN7mozilla12baseprofiler14profiler_startENS_10PowerOfTwoIjEEdjPPKcjRKNS_5MaybeIdEE': 196976, u'_ZN7mozilla10JSONWriter12scNullStringE': 763992, u'_ZN7mozilla12baseprofiler22scProfilerMainThreadIdE': 774560, u'got.floor': 766936, u'_ZN7mozilla6VectorIPKcLm0ENS_17MallocAllocPolicyEE13growStorageByEm': 302496, u'_ZL10base_allocm': 74928, u'LZ4_compressHC2_continue': 500672, u'_ZN7mozilla12baseprofiler8ActivePS14ThreadSelectedEPKc': 299840, u'_ZN9__gnu_cxx5__ops14_Val_comp_iterIZN7mozilla12baseprofiler8ActivePS15ProfiledThreadsERKNS3_10PSAutoLockEEUlRKSt4pairIPNS3_16RegisteredThreadEPNS3_18ProfiledThreadDataEESF_E_EclISD_PSD_EEbRT_T0_': 294304, u'_ZN7mozilla12baseprofiler17ProfilerBacktraceC2EPKcNS_9UniquePtrINS_20ProfileChunkedBufferENS_13DefaultDeleteIS5_EEEENS4_INS0_13ProfileBufferENS6_IS9_EEEE': 151616, u'LZ4_compress': 485056, u'_ZN3lul13CallFrameInfo7HandlerD2Ev': 238864, u'_ZN7arena_t6RallocEPvmm': 68336, u'_ZTTSt14basic_ifstreamIcSt11char_traitsIcEE': 765936, u'_Z22replace_moz_arena_freemPv': 111120, u'_ZN5blink7DecimalC1Ei': 392528, u'_ZN7mozilla12SprintfStateINS_17MallocAllocPolicyEE6appendEPKcm': 340416, u'_ZNSt6vectorIN7mozilla9UniquePtrIN3lul6SecMapENS0_13DefaultDeleteIS3_EEEESaIS6_EE14_M_insert_rvalEN9__gnu_cxx17__normal_iteratorIPKS6_S8_EEOS6_': 368832, u'_ZSt25__unguarded_linear_insertIN9__gnu_cxx17__normal_iteratorIP13SharedLibrarySt6vectorIS2_SaIS2_EEEENS0_5__ops14_Val_comp_iterIPFbRKS2_SB_EEEEvT_T0_': 276288, u'_ZTVNSt7__cxx1115basic_stringbufIcSt11char_traitsIcESaIcEEE': 765944, u'_ZNSt6vectorIN7mozilla7VariantIJNS0_12MarkerSchema11DynamicDataENS2_10StaticDataEEEESaIS5_EE12emplace_backIJNS0_11VariantTypeIS3_EES3_EEERS5_DpOT_': 336656, u'plt.putenv': 50304, u'_ZN7mozilla14DemangleSymbolEPKcPci': 385120, u'_ZN7mozilla28base_profiler_markers_detail23MarkerTypeSerializationINS_12baseprofiler7markers10TextMarkerEE9SerializeIJNSt7__cxx1112basic_stringIcSt11char_traitsIcESaIcEEEEEENS_23ProfileBufferBlockIndexERNS_20ProfileChunkedBufferERKNS_18ProfilerStringViewIcEERKNS_14MarkerCategoryEONS_13MarkerOptionsEDpRKT_': 334848, u'_ZNK17double_conversion23DoubleToStringConverter7ToFixedEdiPNS_13StringBuilderE': 631648, u'_ZN7mozilla12baseprofiler17UniqueJSONStringsC1ENS_10JSONWriter15CollectionStyleE': 142480, u'_ZNSt17_Function_handlerIFPcmEZNK7mozilla12baseprofiler20ChunkedJSONWriteFunc8CopyDataEvEUlmE_E9_M_invokeERKSt9_Any_dataOm': 303424, u'gMozillaPoisonBase': 776144, u'plt.unsetenv': 50704, u'_ZN13SharedLibraryaSERKS_': 123648, u'LZ4HC_compress_generic_internal.clTable': 690560, u'_ZL15replace_reallocPvm': 113040, u'LZ4_compressHC_limitedOutput_withStateHC': 499648, u'_ZN7mozilla9TimeStamp8NowFuzzyENS_14TimeStamp63BitE': 387632, u'got.readahead': 766016, u'replace_init': 51448, u'moz_malloc_size_of': 120304, u'_ZSt11__remove_ifIPN7mozilla9UniquePtrINS0_12baseprofiler18ProfiledThreadDataENS0_13DefaultDeleteIS3_EEEEN9__gnu_cxx5__ops10_Iter_predIZNS0_6VectorIS6_Lm0ENS0_17MallocAllocPolicyEE7eraseIfIZNS2_8ActivePS33DiscardExpiredDeadProfiledThreadsERKNS2_10PSAutoLockEEUlRKS6_E_EEvT_EUlSK_E_EEESM_SM_SM_T0_': 291504, u'_ZN9AllocatorI15MozJemallocBaseE14posix_memalignEPPvmm': 83888, u'got.pthread_mutexattr_destroy': 766200, u'plt.strchr': 49600, u'_ZdlPv': 119504, u'plt._ZNSt9basic_iosIcSt11char_traitsIcEE5clearESt12_Ios_Iostate': 51136, u'_ZSt29_Rb_tree_insert_and_rebalancebPSt18_Rb_tree_node_baseS0_RS_': 49328, u'_ZN7mozilla12baseprofilerL36locked_profiler_save_profile_to_fileERKNS0_10PSAutoLockEPKcb': 187536, u'_ZN17double_conversionL12FillDigits64EmNS_6VectorIcEEPi': 638576, u'_ZNK17double_conversion6Bignum8RawBigitEi': 617840, u'_ZSt8_DestroyIP13SharedLibraryS0_EvT_S2_RSaIT0_E': 125776, u'_ZNK3lul13CallFrameInfo17ValExpressionRule6getTagEv': 315712, u'_ZN7mozilla12baseprofiler14PrintToConsoleEPKcz': 161088, u'_ZNK7mozilla12baseprofiler13ProfileBuffer19SizeOfIncludingThisEPFmPKvE': 133488, u'_ZN7mozilla12baseprofiler8ActivePS16UnregisterThreadERKNS0_10PSAutoLockEPNS0_16RegisteredThreadE': 205152, u'_ZL7gArenas': 767904, u'strcmp': 50752, u'_ZN7arena_tD1Ev': 70160, u'plt.write': 49584, u'_ZN7mozilla12baseprofiler27profiler_current_process_idEv': 151600, u'_ZN16MemoryMappedFile3MapEPKcm': 126912, u'_ZN9AllocatorI15MozJemallocBaseE25jemalloc_free_dirty_pagesEv': 86448, u'_ZNK5blink7DecimaldvERKS0_': 394864, u'LZ4_decompress_safe_usingDict': 484800, u'LZ4F_readLE64': 495808, u'_ZN3lul8SegArray8split_atEm': 369184, u'got.__memcpy_chk': 766928, u'got.pthread_mutexattr_settype': 767008, u'plt.sem_destroy': 49200, u'_ZN12RedBlackTreeI13extent_node_t15ExtentTreeTraitE12MoveRedRightENS2_8TreeNodeE': 79744, u'gMozillaPoisonValue': 776152, u'_ZN3lul10IsValidElfEPKv': 235760, u'got.sem_init': 766976, u'got.memcmp': 766208, u'_ZN7mozilla12baseprofilerL22locked_register_threadERKNS0_10PSAutoLockEPKcPv': 180368, u'LZ4_compress_fast': 421760, u'__tls_get_addr': 51088, u'_ZNKSt8_Rb_treeINSt7__cxx1112basic_stringIcSt11char_traitsIcESaIcEEES5_St9_IdentityIS5_ESt4lessIS5_ESaIS5_EE4findERKS5_': 348416, u'_ZN7mozilla20ProfileChunkedBuffer12GetAllChunksEv': 328208, u'plt.pthread_cond_timedwait': 50960, u'_ZN3lul6SecMap10AddRuleSetEPKNS_7RuleSetE': 354336, u'_ZNK7mozilla12baseprofiler13ProfileBuffer19SizeOfExcludingThisEPFmPKvE': 133296, u'_ZNK7mozilla12baseprofiler18ProfileBufferEntry6GetIntEv': 135728, u'XXH32_canonicalFromHash': 567344, u'_ZN7mozilla10JSONWriter15scNewLineStringE': 763648, u'_ZN17double_conversion10BignumDtoaEdNS_14BignumDtoaModeEiNS_6VectorIcEEPiS3_': 608784, u'XXH3_len_129to240_64b': 600304, u'_ZN3lul13CallFrameInfo4Rule9SetOffsetEx': 315696, u'got.strcmp': 766752, u'_ZN7mozilla20ProfileChunkedBuffer10PutObjectsIJNS_22ProfileBufferEntryKindENS_13MarkerOptionsENS_18ProfilerStringViewIcEENS_14MarkerCategoryEhS5_EEENS_23ProfileBufferBlockIndexEDpRKT_': 338192, u'_ZN17double_conversion6Bignum16MultiplyByUInt32Ej': 623312, u'_ZN9AllocatorI15MozJemallocBaseE16moz_arena_mallocEmm': 87168, u'_ZN3lul16DwarfCFIToModule13ValOffsetRuleEyiil': 229568, u'_ZN7mozilla10JSONWriter13scQuoteStringE': 764040, u'_ZN7mozilla12baseprofiler8ActivePS19DiscardExpiredPagesERKNS0_10PSAutoLockE': 206880, u'fread': 50928, u'_ZN3lul3LUL15EnableUnwindingEv': 357392, u'_ZTVN7mozilla39ProfileBufferChunkManagerWithLocalLimitE': 764144, u'_ZN7mozilla12PrintfTargetD0Ev': 385104, u'LZ4_compress_limitedOutput_continue': 485312, u'_ZNK3lul13CallFrameInfo12RegisterRule4CopyEv': 316080, u'LZ4F_compressBegin': 490048, u'_ZN7arena_t5PurgeEb': 63296, u'LZ4F_headerSize': 491008, u'setenv': 50944, u'_ZL22replace_jemalloc_statsP16jemalloc_stats_tP20jemalloc_bin_stats_t': 108112, u'_ZZN7mozilla20ProfileChunkedBuffer16ReserveAndPutRawIZNS0_13ReserveAndPutIZNS0_10PutObjectsIJNS_22ProfileBufferEntryKindENS_13MarkerOptionsENS_18ProfilerStringViewIcEENS_14MarkerCategoryEhEEENS_23ProfileBufferBlockIndexEDpRKT_EUlvE_ZNS3_IJS4_S5_S7_S8_hEEES9_SD_EUlRNS_5MaybeINS_24ProfileBufferEntryWriterEEEE_EEDTclclsr3stdE7forwardIT0_Efp0_EclL_ZSt7declvalISI_EDTcl9__declvalIT_ELi0EEEvEEEEOSM_OSK_EUlvE_ZNS2_ISE_SJ_EESO_SP_SQ_EUlSI_E_EEDaSP_SQ_RNS_12baseprofiler6detail25BaseProfilerMaybeAutoLockEmENKUlvE_clEv': 334544, u'got.pthread_cond_broadcast': 766160, u'LZ4HC_compress_generic_dictCtx': 531472, u'got.read': 766792, u'_ZN7mozilla12baseprofiler14ProfilingStackD1Ev': 160448, u'malloc_usable_size': 72624, u'_ZN4GMut6sMutexE': 768272, u'pthread_cond_broadcast': 49568, u'_ZN16AlignedAllocatorIXadL_ZN9AllocatorI17ReplaceMallocBaseE8memalignEmmEEE6vallocEm': 95216, u'XXH3_len_129to240_128b': 600800, u'got._ZNSt6localeD1Ev': 766768, u'got.fileno': 766504, u'_ZN9__gnu_cxx5__ops15_Iter_comp_iterIZN7mozilla12baseprofiler8ActivePS15ProfiledThreadsERKNS3_10PSAutoLockEEUlRKSt4pairIPNS3_16RegisteredThreadEPNS3_18ProfiledThreadDataEESF_E_EclIPSD_SJ_EEbT_T0_': 292960, u'plt.pthread_mutexattr_init': 50736, u'_ZNSt8_Rb_treeINSt7__cxx1112basic_stringIcSt11char_traitsIcESaIcEEESt4pairIKS5_PN3lul12UniqueStringEESt10_Select1stISB_ESt4lessIS5_ESaISB_EE4findERS7_': 341776, u'_ZN3lul16DwarfCFIToModule13UndefinedRuleEyi': 229456, u'XXH3_hashLong_128b_default': 585408, u'LZ4_versionNumber': 402592, u'LZ4_saveDict': 448672, u'fclose': 50176, u'pthread_mutex_lock': 50896, u'_ZN7mozilla31ProfileBufferChunkManagerSingle20FulfillChunkRequestsEv': 241168, u'_ZN7mozilla12PrintfTarget12appendIntOctEj': 378608, u'_ZN7mozilla12PrintfTarget12appendIntOctEm': 379552, u'_ZN7mozilla11Compression3LZ410decompressEPKcmPcmPm': 601888, u'_ZZN7mozilla39ProfileBufferChunkManagerWithLocalLimit12ReleaseChunkENS_9UniquePtrINS_18ProfileBufferChunkENS_13DefaultDeleteIS2_EEEEENKUlvE_clEv': 310448, u'_ZN7mozilla12baseprofiler23profiler_ensure_startedENS_10PowerOfTwoIjEEdjPPKcjRKNS_5MaybeIdEE': 197408, u'plt.__strcat_chk': 50160, u'_ZN7mozilla6detail21ConditionVariableImpl8wait_forERNS0_9MutexImplERKNS_16BaseTimeDurationINS_27TimeDurationValueCalculatorEEE': 374608, u'_ZN7mozilla6detail9MutexImplC2Ev': 376336, u'plt.getenv': 50576, u'_ZN9AllocatorI15MozJemallocBaseE18moz_arena_memalignEmmm': 88160, u'_ZN14TypedBaseAllocI13extent_node_tE10sFirstFreeE': 767232, u'plt.dlerror': 49792, u'_ZL14replace_callocmm': 112896, u'got._ZSt18_Rb_tree_incrementPSt18_Rb_tree_node_base': 766320, u'plt.pthread_create': 49824, u'mozalloc_abort': 119568, u'got.__libc_start_main': 765912, u'moz_malloc_usable_size': 120272, u'LZ4_initStream': 410192, u'_ZN5blink7DecimalC1ERKS0_': 392800, u'_ZZN7mozilla28base_profiler_markers_detail23MarkerTypeSerializationIZNS0_L34AddMarkerWithOptionalStackToBufferINS_12baseprofiler7markers9NoPayloadEJEEENS_23ProfileBufferBlockIndexERNS_20ProfileChunkedBufferERKNS_18ProfilerStringViewIcEERKNS_14MarkerCategoryEONS_13MarkerOptionsEDpRKT0_E17NoPayloadUserDataE9SerializeIJEEES6_S8_SC_SF_SH_DpRKT_E3tag': 774704, u'_ZSt4swapI13SharedLibraryENSt9enable_ifIXsr6__and_ISt6__not_ISt15__is_tuple_likeIT_EESt21is_move_constructibleIS4_ESt18is_move_assignableIS4_EEE5valueEvE4typeERS4_SD_': 275472, u'_ZTVSt15basic_streambufIcSt11char_traitsIcEE': 765840, u'_ZN4GMut8postforkEv': 115536, u'plt.pthread_condattr_destroy': 49744, u'_ZNK17double_conversion23DoubleToStringConverter31CreateExponentialRepresentationEPKciiPNS_13StringBuilderE': 629456, u'memset': 49776, u'_ZN3lul13CallFrameInfo14ExpressionRuleD2Ev': 316144, u'_ZN3lul6ModuleC1ERKNSt7__cxx1112basic_stringIcSt11char_traitsIcESaIcEEES8_S8_S8_': 212560, u'_ZL10base_pages': 767824, u'XXH3_128bits_digest': 598032, u'_ZNK3lul10ByteReader13ValidEncodingENS_20DwarfPointerEncodingE': 214512, u'jemalloc_ptr_info': 72976, u'_ZN7mozilla10JSONWriter19scPropertyEndStringE': 763696, u'_ZZNK7mozilla12baseprofiler13ProfileBuffer24StreamPausedRangesToJSONERNS0_20SpliceableJSONWriterEdENK3$_3clEPNS_20ProfileChunkedBuffer6ReaderE': 270400, u'LZ4F_compressFrame_usingCDict': 485888, u'munmap': 49808, u'LZ4_decompress_fast_extDict': 480128, u'__cxa_guard_acquire': 51280, u'_ZN17SharedLibraryInfo14GetInfoForSelfEv': 120416, u'_ZN7mozilla12baseprofilerL10paf_parentEv': 302352, u'gBootstrap': 767208, u'_ZN3lul6FileID31ElfFileIdentifierFromMappedFileEPKvPh': 237280, u'_ZN3lul13CallFrameInfo13ReadCIEFieldsEPNS0_3CIEE': 221872, u'_ZTVSt14basic_ofstreamIcSt11char_traitsIcEE': 765888, u'_ZN7mozilla10JSONWriter13scFalseStringE': 764024, u'_ZN3lul13CallFrameInfo8KindNameENS0_9EntryKindE': 225152, u'XXH64': 567376, u'_ZN7mozilla11Compression3LZ48compressEPKcmPc': 601792, u'_ZN7mozilla12baseprofiler17UniqueJSONStringsC1ERKS1_NS_10JSONWriter15CollectionStyleE': 142704, u'_Z15VsprintfLiteralILm1024EEiRAT__cPKcP13__va_list_tag': 601648, u'_ZN7mozilla6detail14InChunkPointerC2EPKNS_18ProfileBufferChunkES4_NS_23ProfileBufferBlockIndexE': 253712, u'_ZNK5blink7DecimalmiERKS0_': 393520, u'_ZN12RedBlackTreeI13extent_node_t17ExtentTreeSzTraitE6InsertENS2_8TreeNodeE': 77456, u'_ZGVZZNK7mozilla12baseprofiler13ProfileBuffer19StreamSamplesToJSONERNS0_20SpliceableJSONWriterEidRNS0_12UniqueStacksEENK3$_0clEPNS_20ProfileChunkedBuffer6ReaderEE14preSymbolicate': 774672, u'realloc': 72224, u'got._ZNSt9basic_iosIcSt11char_traitsIcEE4initEPSt15basic_streambufIcS1_E': 766712, u'plt.pthread_mutex_trylock': 49408, u'_ZN7mozilla9TimeStamp8ShutdownEv': 388352, u'_ZN7mozilla12baseprofiler17AutoProfilerLabel17GetProfilingStackEv': 161616, u'_ZN3lul16DwarfCFIToModule8Reporter21UndefinedNotSupportedEmPKNS_12UniqueStringE': 230288, u'_ZN7mozillaL17sCanonicalNowTimeE.0.0': 775024, u'_ZN3lul13CallFrameInfo8Reporter21InvalidDwarf4ArtefactEyPKc': 226176, u'_ZN7mozilla12baseprofiler24profiler_get_core_bufferEv': 161296, u'_ZNSt6vectorIN7mozilla35ProfileBufferControlledChunkManager13ChunkMetadataESaIS2_EE17_M_realloc_insertIJS2_EEEvN9__gnu_cxx17__normal_iteratorIPS2_S4_EEDpOT_': 299280, u'_ZN7mozillaL9sInitOnceE': 775000, u'_ZN7mozilla29BaseTimeDurationPlatformUtils18ToSecondsSigDigitsEl': 387776, u'got._ZTTNSt7__cxx1119basic_ostringstreamIcSt11char_traitsIcESaIcEEE': 765864, u'LZ4F_compressEnd': 489024, u'_ZN7mozilla12baseprofiler6CorePS20AppendRegisteredPageERKNS0_10PSAutoLockEO6RefPtrINS0_15PageInformationEE': 206256, u'LZ4F_freeDecompressionContext': 490912, u'LZ4_compress_fast_extState_fastReset': 410256, u'_ZN17double_conversionL15FillFractionalsEmiiNS_6VectorIcEEPiS2_': 639712, u'_ZN7mozilla11Compression28LZ4FrameDecompressionContextC1Eb': 602832, u'_ZN17double_conversionL12ComputeGuessENS_6VectorIKcEEiPd': 648528, u'_ZN7mozilla29BaseTimeDurationPlatformUtils21TicksFromMillisecondsEd': 387872, u'_ZN3lul16DwarfCFIToModule8ReporterD0Ev': 238784, u'_ZNSo9_M_insertImEERSoT_': 49872, u'_ZN3lul7RuleSet12ExprForRegnoENS_13DW_REG_NUMBERE': 353920, u'_ZZN7mozilla6detail9HashTableINS_12HashMapEntryIPvNS_7HashMapImNS_6VectorINS_12baseprofiler18CounterKeyedSampleELm0ENS_17MallocAllocPolicyEEENS_13DefaultHasherImvEES8_EEEENS4_IS3_SC_NSA_IS3_vEES8_E13MapHashPolicyES8_E15changeTableSizeEjNSH_15FailureBehaviorEENKUlRNS0_9EntrySlotISD_EEE_clESL_': 267312, u'__errno_location': 49248, u'got._ZNKSt7__cxx1112basic_stringIcSt11char_traitsIcESaIcEE7compareEPKc': 766096, u'_Z20content_process_mainPN7mozilla9BootstrapEiPPc': 52880, u'got._ZSt9use_facetISt5ctypeIcEERKT_RKSt6locale': 766184, u'_ZSt34__uninitialized_move_if_noexcept_aIPN7mozilla7VariantIJNS0_12MarkerSchema11DynamicDataENS2_10StaticDataEEEES6_SaIS5_EET0_T_S9_S8_RT1_': 337584, u'got.stderr': 765872, u'_ZN9AllocatorI15MozJemallocBaseE7reallocEPvm': 83536, u'_ZN3lul13CallFrameInfo7RuleMap15SetRegisterRuleEiPNS0_4RuleE': 216176, u'_ZL22_malloc_postfork_childv': 90752, u'_ZN5blink7DecimaldVERKS0_': 394768, u'mprotect': 51040, u'_ZN7mozilla31ProfileBufferChunkManagerSingle25SetChunkDestroyedCallbackEOSt8functionIFvRKNS_18ProfileBufferChunkEEE': 241264, u'_ZN7mozilla39ProfileBufferChunkManagerWithLocalLimitD0Ev': 307136, u'_ZN7mozilla12baseprofiler7Sampler22sSigHandlerCoordinatorE': 774648, u'_ZN7mozilla12baseprofiler20ChunkedJSONWriteFunc5WriteERKNS_4SpanIKcLm18446744073709551615EEE': 245488, u'_ZN3lul13CallFrameInfo10OffsetRuleD0Ev': 316592, u'LZ4_compressBound': 402624, u'_ZNK7mozilla20ProfileChunkedBuffer19SizeOfExcludingThisEPFmPKvE': 133312, u'_ZNK3lul10ByteReader13ReadFourBytesEPKc': 214064, u'_ZN7mozilla12baseprofiler24profiler_register_threadEPKcPv': 202416, u'jemalloc_purge_freed_pages': 72816, u'_ZN7mozilla12baseprofiler26profiler_unregister_threadEv': 203808, u'XXH3_64bits_withSeed': 573968, u'_Z14SprintfLiteralILm30EEiRAT__cPKcz': 229200, u'got.__vfprintf_chk': 766088, u'ceil': 49344, u'_ZN7mozilla21FramePointerStackWalkEPFvjPvS0_S0_EjS0_PS0_S0_': 385552, u'_ZN19ReplaceMallocBridge26ReenablePHCOnCurrentThreadEv': 108832, u'plt._ZNKSt7__cxx1112basic_stringIcSt11char_traitsIcESaIcEE4copyEPcmm': 49296, u'_ZNSt6vectorIN7mozilla9UniquePtrIN3lul6SecMapENS0_13DefaultDeleteIS3_EEEESaIS6_EE17_M_realloc_insertIJS6_EEEvN9__gnu_cxx17__normal_iteratorIPS6_S8_EEDpOT_': 367856, u'_ZL9sCrashing': 776160, u'_ZN5blink7DecimalmLERKS0_': 394032, u'_ZN19ReplaceMallocBridge12RegisterHookEPKcPK14malloc_table_tPK19malloc_hook_table_t': 108784, u'got._ZNSt8ios_baseD2Ev': 766144, u'_ZN7mozilla12baseprofiler6detail12RacyFeatures17SetSamplingPausedEv': 161456, u'plt.floor': 51120, u'_ZN7mozillaL26ComputeProcessUptimeThreadEPv': 388704, u'_ZL18sResolutionSigDigs': 775040, u'_ZN3lul13CallFrameInfo8Reporter19UnrecognizedVersionEyi': 225952, u'_ZN3lul13CallFrameInfo8ReporterD2Ev': 238544, u'_ZL21replace_aligned_allocmm': 108384, u'_ZNK7mozilla12baseprofiler18ProfileBufferEntry6GetPtrEv': 135696, u'__memalign_hook': 767144, u'_ZNSt14_Function_base13_Base_managerIZNK7mozilla12baseprofiler20ChunkedJSONWriteFunc8CopyDataEvEUlmE_E10_M_managerERSt9_Any_dataRKS6_St18_Manager_operation': 303504, u'_ZN7mozilla9TimeStamp11NowUnfuzzedEb': 388464, u'_ZN7mozilla11Compression26LZ4FrameCompressionContextC2Eimbb': 602016, u'_ZN7mozilla12baseprofiler22AutoProfilerTextMarkerC2EPKcRKNS_14MarkerCategoryEONS_13MarkerOptionsERKNSt7__cxx1112basic_stringIcSt11char_traitsIcESaIcEEE': 56672, u'_ZN7mozilla39ProfileBufferChunkManagerWithLocalLimit17SetUpdateCallbackEOSt8functionIFvONS_35ProfileBufferControlledChunkManager6UpdateEEE': 309200, u'_ZZN7mozilla20ProfileChunkedBuffer16ReserveAndPutRawIZNS0_13ReserveAndPutIZNS0_3PutIZZNS0_14AppendContentsERKS0_ENKUlRNS_24ProfileBufferEntryReaderEE_clES7_EUlRNS_5MaybeINS_24ProfileBufferEntryWriterEEEE_EEDajOT_EUlvE_SD_EEDTclclsr3stdE7forwardIT0_Efp0_EclL_ZSt7declvalISC_EDTcl9__declvalISE_ELi0EEEvEEEESF_OSH_EUlvE_ZNS2_ISG_SD_EESK_SF_SL_EUlSC_E_EEDaSF_SL_RNS_12baseprofiler6detail25BaseProfilerMaybeAutoLockEmENKUlvE_clEv': 297520, u'got.__tls_get_addr': 766920, u'_ZNK7mozilla4SpanIhLm18446744073709551615EE5FirstEm': 244336, u'LZ4_sizeofStreamState': 485424, u'plt.pthread_mutex_lock': 50896, u'_ZL6gConst': 768496, u'_ZN21AutoObjectMapperPOSIXC1EPFvPKcE': 211504, u'_ZNK7mozilla17AwakeTimeDuration14ToMicrosecondsEv': 373840, u'got.pthread_condattr_init': 766032, u'_ZN3lul10ByteReaderD1Ev': 213984, u'LZ4F_resetDecompressionContext': 490976, u'_ZN7mozilla20ProfileChunkedBuffer16ReserveAndPutRawIZNS0_13ReserveAndPutIZNS0_3PutIZZNS0_14AppendContentsERKS0_ENKUlRNS_24ProfileBufferEntryReaderEE_clES7_EUlRNS_5MaybeINS_24ProfileBufferEntryWriterEEEE_EEDajOT_EUlvE_SD_EEDTclclsr3stdE7forwardIT0_Efp0_EclL_ZSt7declvalISC_EDTcl9__declvalISE_ELi0EEEvEEEESF_OSH_EUlvE_ZNS2_ISG_SD_EESK_SF_SL_EUlSC_E_EEDaSF_SL_RNS_12baseprofiler6detail25BaseProfilerMaybeAutoLockEm': 296080, u'_ZN7mozilla6VectorINSt7__cxx1112basic_stringIcSt11char_traitsIcESaIcEEELm0ENS_17MallocAllocPolicyEE13growStorageByEm': 304592, u'_Z19mozalloc_handle_oomm': 119712, u'_ZN7mozilla12baseprofiler22profiler_get_backtraceEv': 209424, u'_ZNK7mozilla31ProfileBufferChunkManagerSingle12MaxTotalSizeEv': 240976, u'got.strlen': 766192, u'_ZN4GMut12SetPageInUseERK8AutoLockI5MutexEmRKN7mozilla5MaybeImEEPhRK10StackTrace': 116256, u'_ZN7mozilla12baseprofiler20ChunkedJSONWriteFunc4TakeEOS1_': 247776, u'_ZN7mozilla12baseprofiler20OStreamJSONWriteFunc5WriteERKNS_4SpanIKcLm18446744073709551615EEE': 305280, u'_ZNK5blink7DecimalngEv': 395504, u'_fini': 659280, u'_ZN7mozilla12baseprofiler17ProfilerBacktraceC1EPKcNS_9UniquePtrINS_20ProfileChunkedBufferENS_13DefaultDeleteIS5_EEEENS4_INS0_13ProfileBufferENS6_IS9_EEEE': 151616, u'LZ4F_compressionLevel_max': 485664, u'XXH64_createState': 567744, u'LZ4_decompress_fast': 455312, u'_ZN17double_conversion6StrtodENS_6VectorIKcEEi': 650304, u'_ZTVN3lul16DwarfCFIToModuleE': 763504, u'_ZN7mozilla12baseprofiler17AllocPlatformDataEi': 160736, u'got.pthread_mutex_unlock': 766344, u'_ZN17double_conversionL17RadixStringToIeeeILi4EPKcEEdPT0_S3_btbbdbPb': 652656, u'LZ4_decoderRingBufferSize': 466912, u'_ZL6sMutex': 768016, u'got._Unwind_Backtrace': 765984, u'got.unsetenv': 766728, u'got._ZTTSt14basic_ofstreamIcSt11char_traitsIcEE': 765848, u'_ZL3hex': 689136, u'_ZN7mozilla12baseprofilerL11MergeStacksEjbRKNS0_16RegisteredThreadERKNS0_9RegistersERKNS0_11NativeStackERNS0_22ProfilerStackCollectorE': 314720, u'got.dl_iterate_phdr': 766104, u'_ZZN5Debug17jemalloc_ptr_infoEPKvE4info': 767248, u'XXH32_update': 566336, u'_ZN3lul8ElfClassEPKv': 235792, u'got.strerror_r': 766072, u'_ZSt13__adjust_heapIPSt4pairIPN7mozilla12baseprofiler16RegisteredThreadEPNS2_18ProfiledThreadDataEElS7_N9__gnu_cxx5__ops15_Iter_comp_iterIZNS2_8ActivePS15ProfiledThreadsERKNS2_10PSAutoLockEEUlRKS7_SH_E_EEEvT_T0_SL_T1_T2_': 293104, u'_ZL6sFuncs': 768080, u'_ZL14replace_mallocm': 112768, u'_ZN7mozilla12baseprofiler6CorePS13RemoveCounterERKNS0_10PSAutoLockEPNS0_17BaseProfilerCountE': 202080, u'_ZN9AllocatorI15MozJemallocBaseE6callocEmm': 83456, u'_ITM_deregisterTMCloneTable': 765896, u'strncmp': 49680, u'_GLOBAL__sub_I_SSE.cpp': 51952, u'_ZN7mozilla11Compression28LZ4FrameDecompressionContextD1Ev': 602896, u'_ZN5blink7Decimal4zeroENS0_4SignE': 396288, u'_ZNSt6vectorIN3lul8SegArray3SegESaIS2_EE17_M_realloc_insertIJRKS2_EEEvN9__gnu_cxx17__normal_iteratorIPS2_S4_EEDpOT_': 367360, u'sem_post': 49952, u'_ZN7mozilla28base_profiler_markers_detailL26sMarkerTypeFunctions1BasedE': 768544, u'_ZN7mozilla12baseprofiler18ProfileBufferEntryC2ENS_22ProfileBufferEntryKindEPc': 135584, u'_ZNK5blink7DecimalgeERKS0_': 397216, u'_ZN17double_conversion23DoubleToStringConverter13DoubleToAsciiEdNS0_8DtoaModeEiPciPbPiS4_': 631280, u'_ZN7mozilla12baseprofiler18ProfileBufferEntryC2ENS_22ProfileBufferEntryKindEPv': 135600, u'_ZNK3lul13CallFrameInfo13SameValueRuleeqERKNS0_4RuleE': 315904, u'LZ4F_getBlockSize.blockSizes': 690528, u'_ZN7arena_t11TrimRunHeadEP13arena_chunk_tP11arena_run_tmm': 64672, u'_ZL12chunk_recordPvm9ChunkType': 74000, u'XXH64_canonicalFromHash': 569984, u'time': 50080, u'LZ4_setCompressionLevel': 497104, u'plt._ZNSt13basic_filebufIcSt11char_traitsIcEEC1Ev': 50192, u'_ZN17double_conversion6Bignum15BigitsShiftLeftEi': 623024, u'_ZN7mozilla12baseprofiler13profiler_stopEv': 198032, u'LZ4_decompress_safe_withSmallPrefix': 471888, u'_ZTVN3lul13CallFrameInfo13SameValueRuleE': 764496, u'_ZThn8_N7mozilla39ProfileBufferChunkManagerWithLocalLimit17SetUpdateCallbackEOSt8functionIFvONS_35ProfileBufferControlledChunkManager6UpdateEEE': 310128, u'_ZN19ReplaceMallocBridge11GetDMDFuncsEv': 108720, u'_ZN7mozilla20ProfileChunkedBuffer30HandleRequestedChunk_IsPendingERKNS_12baseprofiler6detail25BaseProfilerMaybeAutoLockE': 242848, u'_ZL15WriteStackFramejPvS_S_': 387008, u'_ZNSt5dequeIN3lul13CallFrameInfo7RuleMapESaIS2_EEC2Ev': 343856, u'_ZZN7mozilla12baseprofiler13ProfileBuffer19DuplicateLastSampleEiRKNS_9TimeStampERNS_5MaybeImEEENK3$_4clEPNS_20ProfileChunkedBuffer6ReaderE': 272272, u'XXH64_hashFromCanonical': 570000, u'LZ4F_compressFrameBound': 485728, u'_ZN7mozilla6detail14InChunkPointerC2EPKNS_18ProfileBufferChunkES4_m': 295552, u'__cxa_guard_release': 49840, u'LZ4_compress_HC_continue_destSize': 498752, u'_ZN17double_conversion6Bignum5ClampEv': 620160, u'_ZN4GTls13tlsIsDisabledE': 8, u'_ZN9PHCBridge25DisablePHCOnCurrentThreadEv': 116784, u'plt.dlopen': 50880, u'plt.pthread_join': 49696, u'LZ4_compress_forceExtDict': 443168, u'_ZN3lul14parseDwarfExprEPNS_10SummariserEPKNS_10ByteReaderENSt7__cxx1112basic_stringIcSt11char_traitsIcESaIcEEEbbb': 227312, u'_ZNK7mozilla12baseprofiler15PageInformation6EqualsEPS1_': 131360, u'_ZN4GMut12FillAddrInfoERK8AutoLockI5MutexEmPKvbRN7mozilla3phc8AddrInfoE': 116880, u'_ZN7mozilla17AutoProfilerLabelD1Ev': 373664, u'got.pthread_mutex_trylock': 766080, u'_ZN7mozilla13JSONWriteFuncD2Ev': 245904, u'_ZdlPvRKSt9nothrow_t': 119520, u'_ZN9AllocatorI15MozJemallocBaseE18malloc_usable_sizeEPv': 84592, u'strchr': 49600, u'tolower': 50848, u'_ZN7mozilla15ProcessUptimeMsEv': 389632, u'LZ4F_decompress': 491440, u'got._ZNKSt12__basic_fileIcE7is_openEv': 766064, u'_ZN3lul10ByteReader13SetOffsetSizeEh': 214016, u'got.sigaction': 766688, u'_ZN7mozilla11Compression28LZ4FrameDecompressionContext10DecompressENS_4SpanIcLm18446744073709551615EEENS2_IKcLm18446744073709551615EEE': 602912, u'plt._ZNSt14basic_ifstreamIcSt11char_traitsIcEEC1EPKcSt13_Ios_Openmode': 51296, u'_ZL26replace_malloc_usable_sizePv': 115200, u'_ZGVZL17GetKernelPageSizevE16kernel_page_size': 767992, u'_ZN3lul6SecMap11FindRuleSetEm': 354192, u'plt.__tls_get_addr': 51088, u'_ZN7mozilla14AwakeTimeStamppLERKNS_17AwakeTimeDurationE': 373920, u'LZ4_sizeofState': 402672, u'plt.ceil': 49344, u'__data_start': 767096, u'_ZN7mozilla12baseprofiler24profiler_clear_all_pagesEv': 207952, u'_ZN7mozilla30RegisterProfilerLabelEnterExitEPFPvPKcS2_S0_EPFvS0_E': 373248, u'_ZN3lul22ReadSymbolDataInternalEPKhRKNSt7__cxx1112basic_stringIcSt11char_traitsIcESaIcEEERKSt6vectorIS7_SaIS7_EEPNS_6SecMapEPvmPNS_20UniqueStringUniverseEPFvPKcE': 232080, u'_ZN7mozilla12baseprofiler31profiler_get_available_featuresEv': 196672, u'got.fprintf': 766784, u'XXH128_canonicalFromHash': 584192, u'strtol': 50768, u'_ZN7mozilla24ProfileBufferEntryWriter12WriteULEB128IjEEvT_': 243888, u'_ZN7mozilla11sse_private13sse4a_enabledE': 767226, u'_ZN7mozilla11Compression3LZ417decompressPartialEPKcmPcmPm': 601952, u'_Z14SprintfLiteralILm500EEiRAT__cPKcz': 346944, u'_ZTVN3lul10ByteReaderE': 763168, u'LZ4_createHC': 500528, u'_ZN14TypedBaseAllocI7arena_tE7size_ofEv': 59472, u'_ZN7mozilla11Compression26LZ4FrameCompressionContext19ContinueCompressingENS_4SpanIKcLm18446744073709551615EEE': 602464, u'_ZNK3lul13CallFrameInfo14ExpressionRule4CopyEv': 316368, u'bcmp': 50208, u'_ZN3lul20UniqueStringUniverseD1Ev': 213184, u'dlclose': 49920, u'memcpy': 49984, u'got._ZTVNSt7__cxx1115basic_stringbufIcSt11char_traitsIcESaIcEEE': 765944, u'plt.memchr': 50352, u'_ZNSt8_Rb_treeINSt7__cxx1112basic_stringIcSt11char_traitsIcESaIcEEESt4pairIKS5_PN3lul12UniqueStringEESt10_Select1stISB_ESt4lessIS5_ESaISB_EE8_M_eraseEPSt13_Rb_tree_nodeISB_E': 315152, u'_ZN3lul13CallFrameInfo5State11DoValOffsetEjl': 220992, u'_ZN7mozilla12baseprofiler6detail12RacyFeatures19SetSamplingUnpausedEv': 161488, u'_ZN3lul13CallFrameInfo4RuleD2Ev': 316784, u'_ZN7mozilla12baseprofiler17AddMarkerToBufferINS0_7markers9NoPayloadEJEEENS_23ProfileBufferBlockIndexERNS_20ProfileChunkedBufferERKNS_18ProfilerStringViewIcEERKNS_14MarkerCategoryEONS_13MarkerOptionsET_DpRKT0_': 157088, u'_ZNK5blink7Decimal3absEv': 397392, u'_ZN12RedBlackTreeI7arena_t14ArenaTreeTraitE8Iterator4ItemIN15ArenaCollection8IteratorEEppEv': 91264, u'got.pthread_cond_destroy': 767064, u'LZ4F_freeCDict': 489856, u'_ZSt22__move_median_to_firstIPSt4pairIPN7mozilla12baseprofiler16RegisteredThreadEPNS2_18ProfiledThreadDataEEN9__gnu_cxx5__ops15_Iter_comp_iterIZNS2_8ActivePS15ProfiledThreadsERKNS2_10PSAutoLockEEUlRKS7_SH_E_EEEvT_SK_SK_SK_T0_': 293696, u'got._ZSt16__ostream_insertIcSt11char_traitsIcEERSt13basic_ostreamIT_T0_ES6_PKS3_l': 766584, u'_ZN17double_conversionL22CompareBufferWithDiyFpENS_6VectorIKcEEiNS_5DiyFpE': 650096, u'_ZN17double_conversion13FastFixedDtoaEdiNS_6VectorIcEEPiS2_': 636672, u'_ZNK7mozilla12baseprofiler13ProfileBuffer24StreamPausedRangesToJSONERNS0_20SpliceableJSONWriterEd': 141184, u'__malloc_hook': 767128, u'_ZGVZL19WalkTheStackEnabledvE6result': 774984, u'_ZN7mozilla12baseprofiler22ProfilerStackCollector15SetIsMainThreadEv': 238528, u'_ZNK5blink14DecimalPrivate19SpecialValueHandler5valueEv': 391920, u'_ZNSt6vectorIN7mozilla9UniquePtrIN3lul6SecMapENS0_13DefaultDeleteIS3_EEEESaIS6_EED2Ev': 367712, u'frame_dummy': 52864, u'_ZNSt6localeD1Ev': 50784, u'sigaction': 50624, u'_ZN7mozilla12baseprofiler27ProfilerBacktraceDestructorclEPNS0_17ProfilerBacktraceE': 209616, u'_ZN7mozilla6VectorINS_9UniquePtrINS_12baseprofiler16RegisteredThreadENS_13DefaultDeleteIS3_EEEELm0ENS_17MallocAllocPolicyEE13growStorageByEm': 301376, u'_ZTVN3lul13CallFrameInfo17ValExpressionRuleE': 764336, u'_ZNK3lul13CallFrameInfo17ValExpressionRule4CopyEv': 315472, u'got.islower': 766704, u'_ZN7mozilla13ReadAheadFileEPKcmmPi': 57248, u'_ZNK3lul13CallFrameInfo10OffsetRule6getTagEv': 316768, u'_ZN7mozilla20ProfileChunkedBuffer12RequestChunkERKNS_12baseprofiler6detail25BaseProfilerMaybeAutoLockE': 243344, u'_ZN7mozilla12baseprofiler6tgkillEiii': 174992, u'_ZN7mozilla39ProfileBufferChunkManagerWithLocalLimit31PeekExtantReleasedChunksAndLockEv': 309120, u'_ZN7mozilla12baseprofiler15profiler_resumeEv': 199360, u'plt._ZNSt12__basic_fileIcED1Ev': 51344, u'_ZN7mozilla12baseprofiler22AutoProfilerTextMarkerD2Ev': 57008, u'plt.perror': 50000, u'_ZN13BaseAllocator6callocEmm': 91600, u'_IO_stdin_used': 659456, u'_ZN7mozilla9TimeStamp20ComputeProcessUptimeEv': 388544, u'got.strtoul': 766136, u'_ZN7mozilla10JSONWriter16scArrayEndStringE': 764072, u'__init_array_end': 761768, u'_ZN7mozilla28base_profiler_markers_detail17AddMarkerToBufferINS_12baseprofiler7markers9NoPayloadEJEEENS_23ProfileBufferBlockIndexERNS_20ProfileChunkedBufferERKNS_18ProfilerStringViewIcEERKNS_14MarkerCategoryEONS_13MarkerOptionsEPFbS7_NS_19StackCaptureOptionsEEDpRKT0_': 157328, u'_ZTV14LogAllocBridge': 762136, u'_ZZN17double_conversion6Bignum20MultiplyByPowerOfTenEiE12kFive1_to_12': 692064, u'_ZN3lul10SummariserC1EPNS_6SecMapEmPFvPKcE': 230576, u'_ZN3lul10Summariser5EntryEmm': 230656, u'plt._ZNSt7__cxx1112basic_stringIcSt11char_traitsIcESaIcEE9_M_assignERKS4_': 49760, u'plt.sem_post': 49952, u'_ZN9PHCBridge26ReenablePHCOnCurrentThreadEv': 116816, u'_ZN7mozilla12baseprofiler25profiler_get_start_paramsEPiPNS_5MaybeIdEEPdPjPNS_6VectorIPKcLm0ENS_17MallocAllocPolicyEEE': 192976, u'_ZNSt6vectorI17LoadedLibraryInfoSaIS0_EE17_M_realloc_insertIJS0_EEEvN9__gnu_cxx17__normal_iteratorIPS0_S2_EEDpOT_': 123840, u'_ZN9PHCBridge15IsPHCAllocationEPKvPN7mozilla3phc8AddrInfoE': 116464, u'MozDescribeCodeAddress': 385328, u'_ZSt9__find_ifIPN7mozilla9UniquePtrINS0_12baseprofiler18ProfiledThreadDataENS0_13DefaultDeleteIS3_EEEEN9__gnu_cxx5__ops10_Iter_predIZNS0_6VectorIS6_Lm0ENS0_17MallocAllocPolicyEE7eraseIfIZNS2_8ActivePS33DiscardExpiredDeadProfiledThreadsERKNS2_10PSAutoLockEEUlRKS6_E_EEvT_EUlSK_E_EEESM_SM_SM_T0_St26random_access_iterator_tag': 291728, u'_ZN7mozilla12baseprofiler17profiler_shutdownEv': 186976, u'LZ4_resetStreamHC': 497232, u'got._ZNKSt7__cxx1112basic_stringIcSt11char_traitsIcESaIcEE5rfindEcm': 767080, u'_ZN7arena_t16GetNonFullBinRunEP11arena_bin_t': 64816, u'_ZNSt7__cxx1112basic_stringIcSt11char_traitsIcESaIcEE9_M_mutateEmmPKcm': 51248, u'_ZL11gChunkRTree': 767704, u'_ZN7mozilla24ProfileBufferEntryWriter8SumBytesIJNS_22ProfileBufferEntryKindENS_13MarkerOptionsENS_18ProfilerStringViewIcEENS_14MarkerCategoryEhS5_EEEjDpRKT_': 339424, u'dl_iterate_phdr': 49456, u'_ZN3lul10ByteReaderC1ENS_10EndiannessE': 213936, u'jemalloc_stats_internal': 72752, u'_ZNSt7__cxx1112basic_stringIcSt11char_traitsIcESaIcEE10_M_replaceEmmPKcm': 51008, u'_ZN7mozilla12baseprofiler11EntryGetter4NextEv': 253152, u'got.pthread_create': 766288, u'__register_atfork': 49968, u'_ZN7mozilla12baseprofiler8ActivePS14UnregisterPageERKNS0_10PSAutoLockEm': 207392, u'_ZN7mozilla28base_profiler_markers_detail17AddMarkerToBufferINS_12baseprofiler7markers10TextMarkerEJNSt7__cxx1112basic_stringIcSt11char_traitsIcESaIcEEEEEENS_23ProfileBufferBlockIndexERNS_20ProfileChunkedBufferERKNS_18ProfilerStringViewIcEERKNS_14MarkerCategoryEONS_13MarkerOptionsEPFbSD_NS_19StackCaptureOptionsEEDpRKT0_': 159552, u'_ZN3lul7TestFn6EPNS_3LULEPKcS3_': 365456, u'_ZN7mozilla12baseprofiler8ActivePS15ProfiledThreadsERKNS0_10PSAutoLockE': 276624, u'plt.clock_gettime': 50064, u'plt.dladdr': 50224, u'plt.fileno': 50256, u'gMozillaPoisonSize': 776136, u'got.putenv': 766528, u'got.strchr': 766176, u'_ZN7mozilla12baseprofiler24profiler_unregister_pageEm': 207216, u'plt._ZSt7getlineIcSt11char_traitsIcESaIcEERSt13basic_istreamIT_T0_ES7_RNSt7__cxx1112basic_stringIS4_S5_T1_EES4_': 51328, u'plt.pow': 51184, u'_ZN7mozilla24ProfileBufferEntryWriter8SumBytesIJNS_22ProfileBufferEntryKindENS_13MarkerOptionsENS_18ProfilerStringViewIcEENS_14MarkerCategoryEhEEEjDpRKT_': 332224, u'got.pthread_cond_timedwait': 766856, u'LZ4_decompress_safe_continue': 466960, u'_ZL15unwind_callbackP15_Unwind_ContextPv': 385232, u'XXH3_generateSecret': 583696, u'_ZN7mozilla12baseprofiler16RegisteredThreadD2Ev': 160784, u'_ZN7mozilla6detail21ConditionVariableImpl10notify_allEv': 374480, u'pthread_condattr_setclock': 50128, u'MOZ_CrashPrintf': 51668, u'plt.pthread_self': 50032, u'_ZN19DummyArenaAllocatorI9AllocatorI17ReplaceMallocBaseEE14moz_arena_freeEmPv': 95568, u'_ZN17double_conversion16PowersOfTenCache36GetCachedPowerForBinaryExponentRangeEiiPNS_5DiyFpEPi': 628960, u'_ZN7arena_t11DallocLargeEP13arena_chunk_tPv': 66944, u'_ZN7mozilla6VectorI6RefPtrINS_12baseprofiler15PageInformationEELm0ENS_17MallocAllocPolicyEE13growStorageByEm': 290416, u'_ZN5blink14DecimalPrivate19SpecialValueHandler6handleEv': 391808, u'_ZN17double_conversionL16IsHexFloatStringIPKcEEbT_S3_tb': 651664, u'_ZN3lul7RuleSetC2Ev': 353984, u'LZ4_decompress_fast_continue': 475216, u'_ZN7mozilla12baseprofiler8ActivePS13ProfiledPagesERKNS0_10PSAutoLockE': 290048, u'_ZNK5blink7Decimal4ceilEv': 397424, u'_ZN3lul13CallFrameInfo5State13DoInstructionEv': 216704, u'got.strncpy': 766240, u'got.pthread_cond_signal': 765992, u'plt.replace_init': 51448, u'_ZN12_GLOBAL__N_112BaseFileNameERKNSt7__cxx1112basic_stringIcSt11char_traitsIcESaIcEEE': 345280, u'clock_getres': 51360, u'_ZN7mozilla12baseprofiler20profiler_thread_wakeEv': 208368, u'sem_destroy': 49200, u'LZ4F_compressUpdate': 487456, u'_ZNK3lul13CallFrameInfo14ExpressionRuleeqERKNS0_4RuleE': 316288, u'_ZNK3lul5LExpr12EvaluateExprEPKNS_10UnwindRegsENS_11TaggedUWordEPKNS_10StackImageEPKSt6vectorINS_8PfxInstrESaIS9_EE': 362288, u'LZ4_compress_HC_destSize': 496768, u'_ZN7mozilla12PrintfTarget12appendIntDecEm': 379360, u'_ZN7mozilla12PrintfTarget12appendIntDecEl': 378928, u'_ZN7mozilla11sse_private12sse3_enabledE': 767224, u'_ZNK5blink7DecimalplERKS0_': 392960, u'_ZN7mozilla12PrintfTarget12appendIntDecEi': 377984, u'got._ZNSt9basic_iosIcSt11char_traitsIcEE5clearESt12_Ios_Iostate': 766944, u'got._ZNSt14basic_ifstreamIcSt11char_traitsIcEEC1EPKcSt13_Ios_Openmode': 767024, u'got.getenv': 766664, u'_ZN5blink7DecimalC1ENS0_4SignEim': 392576, u'_ZN3lul13CallFrameInfo17ReadEntryPrologueEPKcPNS0_5EntryE': 221200, u'LZ4_saveDictHC': 498768, u'_ZL9gInitLock': 767152, u'_ZNSt6vectorIN3lul8PfxInstrESaIS1_EE17_M_realloc_insertIJRKS1_EEEvN9__gnu_cxx17__normal_iteratorIPS1_S3_EEDpOT_': 369936, u'_ZN3lul10Summariser3LogEPKc': 238944, u'_ZN7mozilla12SprintfStateINS_17MallocAllocPolicyEED0Ev': 340368, u'_ZNK3lul3LUL19SizeOfIncludingThisEPFmPKvE': 357200, u'LZ4_attach_HC_dictionary': 497840, u'_ZL11sResolution': 775032, u'_ZN7mozilla12baseprofilerL21MozGlueBaseLabelEnterEPKcS2_Pv': 305328, u'_ZN7mozilla9TimeStamp15ProcessCreationEPb': 387328, u'_ZN12_GLOBAL__N_111LoadSymbolsIN3lul10ElfClass64EEEbRKNSt7__cxx1112basic_stringIcSt11char_traitsIcESaIcEEEbPKNT_4EhdrEbPNS_15LoadSymbolsInfoISB_EEPNS1_6SecMapEPvmPNS1_20UniqueStringUniverseEPFvPKcE': 349744, u'__TMC_END__': 767192, u'got.memchr': 766552, u'_ZNSt5dequeIN3lul13CallFrameInfo7RuleMapESaIS2_EE16_M_push_back_auxIJRKS2_EEEvDpOT_': 344112, u'_Znwm': 119440, u'_ZNK3lul13CallFrameInfo12RegisterRule6getTagEv': 316128, u'_ZN3lul7TestUnwEPiS0_PNS_3LULEPKc': 366016, u'_ZN7mozilla12baseprofiler6detail12RacyFeatures11SetInactiveEv': 161360, u'_ZNSt8_Rb_treeINSt7__cxx1112basic_stringIcSt11char_traitsIcESaIcEEES5_St9_IdentityIS5_ESt4lessIS5_ESaIS5_EE24_M_get_insert_unique_posERKS5_': 289520, u'_ZN7mozilla12baseprofiler17ProfilerBacktraceC1EPKcPNS_20ProfileChunkedBufferEPNS0_13ProfileBufferE': 151952, u'got.pthread_mutex_lock': 766824, u'_ZL11chunk_allocmmbPb': 61504, u'_ZN12RedBlackTreeI17arena_chunk_map_t17ArenaRunTreeTraitE6InsertENS2_8TreeNodeE': 82640, u'plt._ZNKSt7__cxx1112basic_stringIcSt11char_traitsIcESaIcEE7compareEPKc': 49440, u'_ZNSt14basic_ifstreamIcSt11char_traitsIcEEC1EPKcSt13_Ios_Openmode': 51296, u'_ZN7mozilla6detail21ConditionVariableImplD2Ev': 374384, u'_ZN7mozilla12baseprofiler18ProfiledThreadData10StreamJSONERKNS0_13ProfileBufferERNS0_20SpliceableJSONWriterERKNSt7__cxx1112basic_stringIcSt11char_traitsIcESaIcEEESE_RKNS_9TimeStampEd': 145024, u'_ZN7mozilla6detail13SprintfAppendD0Ev': 55936, u'plt.__cxa_guard_acquire': 51280, u'_ZN3lul10Summariser3EndEv': 232032, u'_ZN3lul10ByteReaderD2Ev': 213984, u'_ZN21AutoObjectMapperPOSIXD2Ev': 211536, u'_ZTVN3lul13CallFrameInfo14ExpressionRuleE': 764656, u'_ZN7arena_t9DallocRunEP11arena_run_tb': 63680, u'_Z22replace_jemalloc_statsP16jemalloc_stats_tP20jemalloc_bin_stats_t': 108944, u'_ZNK7mozilla13DefaultDeleteINS_18ProfileBufferChunkEEclEPS1_': 58096, u'got._ZNSo9_M_insertIlEERSoT_': 766432, u'strcpy': 50096, u'_ZN17double_conversion6Bignum12AssignBignumERKS0_': 617968, u'_ZN9PHCBridge27IsPHCEnabledOnCurrentThreadEv': 116848, u'__init_array_start': 761712, u'_ZN7mozilla7SHA1SumC1Ev': 603824, u'_ITM_registerTMCloneTable': 765928, u'_ZNK3lul13CallFrameInfo7RuleMap18HandleTransitionToEPNS0_7HandlerEyRKS1_': 216272, u'_ZN7arena_t8AllocRunEmbb': 61168, u'_ZThn8_N7mozilla39ProfileBufferChunkManagerWithLocalLimitD1Ev': 310064, u'_ZN17SharedLibraryInfo13SortByAddressEv': 163232, u'_ZN7mozilla12baseprofiler36profiler_is_locked_on_current_threadEv': 209712, u'sigemptyset': 50608, u'plt._ZNKSt7__cxx1112basic_stringIcSt11char_traitsIcESaIcEE5rfindEcm': 51408, u'_ZN7mozilla12baseprofiler26profiler_current_thread_idEv': 164144, u'_ZN7mozilla12baseprofiler13ProfileBuffer16AddThreadIdEntryERNS_20ProfileChunkedBufferEi': 132608, u'XXH3_128bits_reset_withSeed': 594112, u'_ZN7mozilla6detail9HashTableINS_12HashMapEntryIjjEENS_7HashMapIjjNS_13DefaultHasherIjvEENS_17MallocAllocPolicyEE13MapHashPolicyES7_E3addIJRjSC_EEEbRNSA_6AddPtrEDpOT_': 329664, u'plt.strrchr': 50336, u'_ZN12RedBlackTreeI17arena_chunk_map_t19ArenaAvailTreeTraitE12MoveRedRightENS2_8TreeNodeE': 98016, u'_ZSt16__introsort_loopIN9__gnu_cxx17__normal_iteratorIP13SharedLibrarySt6vectorIS2_SaIS2_EEEElNS0_5__ops15_Iter_comp_iterIPFbRKS2_SB_EEEEvT_SF_T0_T1_': 273168, u'XXH3_64bits_reset_withSeed': 577840, u'log10': 49712, u'_ZN7mozilla12baseprofiler20ChunkedJSONWriteFunc10AllocChunkEm': 245296, u'_ZL4huge': 767320, u'LZ4_create': 485472, u'getenv': 50576, u'_ZNK7mozilla12baseprofiler20ChunkedJSONWriteFunc8CopyDataEv': 191520, u'_GLOBAL__sub_I_Unified_cpp_mozglue_baseprofiler0.cpp': 52304, u'_ZN17double_conversion16PowersOfTenCacheL13kCachedPowersE': 692112, u'_ZN3lul16DwarfCFIToModule13RegisterNames5ARM64Ev': 227280, u'_ZN7mozilla18ProfilerLabelBeginEPKcS1_Pv': 373344, u'_ZN12_GLOBAL__N_112LoadDwarfCFIIN3lul10ElfClass32EEEbRKNSt7__cxx1112basic_stringIcSt11char_traitsIcESaIcEEEPKNT_4EhdrEPKcPKNSB_4ShdrEbSJ_SJ_bPNS1_6SecMapEmPNS1_20UniqueStringUniverseEPFvSG_E': 347216, u'_ZN7mozilla24ProfileBufferEntryReader12DeserializerINS_12MarkerTimingEE8ReadIntoERS0_RS2_': 324512, u'_ZNK3lul13CallFrameInfo14ExpressionRule6getTagEv': 316576, u'_ZN7mozilla21AutoProfilerLabelData9sAPLMutexE': 774752, u'LZ4_compressHC2': 499232, u'XXH3_hashLong_64b_default': 570736, u'strndup': 73536, u'got.strncmp': 766216, u'_ZN7mozillaL16JiffiesSinceBootEPKc': 389152, u'got._ZNSt6localeC1Ev': 767088, u'_ZN16AlignedAllocatorIXadL_ZN9AllocatorI17ReplaceMallocBaseE8memalignEmmEEE13aligned_allocEmm': 95104, u'_ZN3lul13CallFrameInfo17ValExpressionRuleD0Ev': 315296, u'__libc_csu_init': 659136, u'plt._ZNKSt7__cxx1112basic_stringIcSt11char_traitsIcESaIcEE4findEPKcmm': 51168, u'_ZN3lul3LUL14MaybeShowStatsEv': 357024, u'_ZNSt8ios_baseC2Ev': 49472, u'plt.fclose': 50176, u'_ZN7mozilla12MarkerSchema18FormatToStringSpanENS0_6FormatE': 156240, u'_ZNK7mozilla12baseprofiler13ProfileBuffer19StreamMarkersToJSONERNS0_20SpliceableJSONWriterEiRKNS_9TimeStampEdRNS0_12UniqueStacksE': 140560, u'_ZN19DummyArenaAllocatorI9AllocatorI17ReplaceMallocBaseEE16moz_arena_callocEmmm': 95440, u'MozFormatCodeAddress': 385824, u'_ZN7mozilla24ProfileBufferEntryReader12DeserializerINS_18ProfilerStringViewIcEEE4ReadERS0_': 327888, u'readlink': 50288, u'pthread_self': 50032, u'_ZN17double_conversion6Bignum16MultiplyByUInt64Em': 623568, u'_ZN7mozilla25ProfileBufferChunkManager24PeekExtantReleasedChunksIZNKS_20ProfileChunkedBuffer8ReadEachIZNKS_12baseprofiler13ProfileBuffer19StreamMarkersToJSONERNS4_20SpliceableJSONWriterEiRKNS_9TimeStampEdRNS4_12UniqueStacksEE3$_6EEvOT_EUlPKNS_18ProfileBufferChunkEE_EEDaSF_': 322000, u'plt.memset': 49776, u'_ZN7mozilla24ProfileBufferEntryWriter10SerializerINS_12MarkerTimingEE5WriteERS0_RKS2_': 333552, u'_ZN7mozilla20ProfileChunkedBuffer15SetChunkManagerEONS_9UniquePtrINS_25ProfileBufferChunkManagerENS_13DefaultDeleteIS2_EEEE': 326512, u'_ZN3lul16DwarfCFIToModule13RegisterNames6X86_64Ev': 227248, u'_ZN3lul6SecMapD2Ev': 354112, u'_ZL19gDynamicMallocTable': 767528, u'_ZN7mozilla12baseprofiler13ProfileBufferC1ERNS_20ProfileChunkedBufferE': 131968, u'_ZN7mozilla22IsFloat32RepresentableEd': 603104, u'plt.strerror': 49552}